	.cpu arm7tdmi-s
	.eabi_attribute 20, 1	@ Tag_ABI_FP_denormal
	.eabi_attribute 21, 1	@ Tag_ABI_FP_exceptions
	.eabi_attribute 23, 3	@ Tag_ABI_FP_number_model
	.eabi_attribute 24, 1	@ Tag_ABI_align8_needed
	.eabi_attribute 25, 1	@ Tag_ABI_align8_preserved
	.eabi_attribute 26, 1	@ Tag_ABI_enum_size
	.eabi_attribute 30, 1	@ Tag_ABI_optimization_goals
	.eabi_attribute 34, 0	@ Tag_CPU_unaligned_access
	.eabi_attribute 18, 4	@ Tag_ABI_PCS_wchar_t
	.file	"test.c"
	.text
.Ltext0:
	.cfi_sections	.debug_frame
	.global	__aeabi_idiv
	.global	__aeabi_idivmod
	.global	__aeabi_i2d
	.global	__aeabi_dmul
	.align	2
	.global	main
	.syntax unified
	.arm
	.fpu softvfp
	.type	main, %function
main:
.LFB2:
	.file 1 "test.c"
	@ test.c:15
	.loc 1 15 0
	.cfi_startproc
	@ Function supports interworking.
	@ args = 0, pretend = 0, frame = 0
	@ frame_needed = 0, uses_anonymous_args = 0
@ BLOCK 2 freq:900 seq:0
@ PRED: ENTRY [100.0%]  (FALLTHRU)
	push	{r4, r5, r6, r7, r8, r9, r10, fp, lr}
.LCFI0:
	.cfi_def_cfa_offset 36
	.cfi_offset 4, -36
	.cfi_offset 5, -32
	.cfi_offset 6, -28
	.cfi_offset 7, -24
	.cfi_offset 8, -20
	.cfi_offset 9, -16
	.cfi_offset 10, -12
	.cfi_offset 11, -8
	.cfi_offset 14, -4
	sub	sp, sp, #20
.LCFI1:
	.cfi_def_cfa_offset 56
	@ test.c:22
	.loc 1 22 0
	ldr	r2, .L10
	ldr	r3, .L10+4
	str	r2, [r3]
	@ test.c:23
	.loc 1 23 0
	ldr	r2, .L10+8
	ldr	r3, .L10+12
	str	r2, [r3]
	@ test.c:24
	.loc 1 24 0
	ldr	r0, .L10+16
	bl	xprintf
.LVL0:
	@ test.c:27
	.loc 1 27 0
	bl	LCD_Init
.LVL1:
	@ test.c:28
	.loc 1 28 0
	mov	r1, #1
	mov	r0, #0
	bl	LCD_Write
.LVL2:
	@ test.c:29
	.loc 1 29 0
	mov	r1, #40
	ldr	r0, .L10+20
	bl	LCD_Puts
.LVL3:
	@ test.c:30
	.loc 1 30 0
	mov	r1, #192
	mov	r0, #0
	bl	LCD_Write
.LVL4:
	@ test.c:31
	.loc 1 31 0
	mov	r1, #40
	ldr	r0, .L10+24
	bl	LCD_Puts
.LVL5:
	@ test.c:34
	.loc 1 34 0
	ldr	r3, .L10+28
	ldr	r2, .L10+32
	mov	r1, #7
	mov	r0, #4
	bl	__malloc2388_init
.LVL6:
	@ test.c:36
	.loc 1 36 0
	ldr	r0, .L10+36
	bl	xprintf
.LVL7:
	@ test.c:37
	.loc 1 37 0
	mov	r0, #50
	bl	malloc2388
.LVL8:
	ldr	r3, .L10+40
	str	r0, [r3]
	cmp	r0, #0
@ SUCC: 9 [15.0%]  (CAN_FALLTHRU) 3 [85.0%]  (FALLTHRU,CAN_FALLTHRU)
	beq	.L9
@ BLOCK 3 freq:765 seq:1
@ PRED: 2 [85.0%]  (FALLTHRU,CAN_FALLTHRU)
	@ test.c:40
	.loc 1 40 0
	mov	r2, r0
	ldr	r1, .L10+44
	bl	sprintf
.LVL9:
	@ test.c:41
	.loc 1 41 0
	ldr	r4, .L10+40
	ldr	r0, [r4]
	bl	xprintf
.LVL10:
	@ test.c:42
	.loc 1 42 0
	ldr	r0, [r4]
	bl	free2388
.LVL11:
	mov	r3, #0
@ SUCC: 4 [100.0%]  (FALLTHRU,CAN_FALLTHRU)
	str	r3, [r4]
@ BLOCK 4 freq:900 seq:2
@ PRED: 3 [100.0%]  (FALLTHRU,CAN_FALLTHRU) 9 [100.0%]  (CAN_FALLTHRU)
.L3:
	@ test.c:46
	.loc 1 46 0
	ldr	r0, .L10+48
	bl	xprintf
.LVL12:
	@ test.c:47
	.loc 1 47 0
	ldr	r3, .L10+40
	ldr	r2, .L10+52
	str	r2, [r3, #4]
	@ test.c:48
	.loc 1 48 0
	mov	r4, #3
	str	r4, [r3, #8]
	@ test.c:49
	.loc 1 49 0
	mov	r6, r3
@ SUCC: 5 [100.0%]  (FALLTHRU,CAN_FALLTHRU)
	@ test.c:50
	.loc 1 50 0
	ldr	r8, .L10+56
@ BLOCK 5 freq:9100 seq:3
@ PRED: 4 [100.0%]  (FALLTHRU,CAN_FALLTHRU) 5 [91.0%]  (DFS_BACK,CAN_FALLTHRU)
.L4:
	@ test.c:49
	.loc 1 49 0
	ldr	r5, [r6, #4]
	sub	r5, r5, #1
	str	r5, [r6, #4]
	@ test.c:50
	.loc 1 50 0
	mov	r1, r4
	mov	r0, r5
	bl	__aeabi_idiv
.LVL13:
	mov	r7, r0
	mov	r1, r4
	mov	r0, r5
	bl	__aeabi_idivmod
.LVL14:
	str	r1, [sp]
	mov	r3, r7
	mov	r2, r4
	mov	r1, r5
	mov	r0, r8
	bl	xprintf
.LVL15:
	@ test.c:48
	.loc 1 48 0
	ldr	r4, [r6, #8]
	add	r4, r4, #1
	str	r4, [r6, #8]
	cmp	r4, #5
@ SUCC: 5 [91.0%]  (DFS_BACK,CAN_FALLTHRU) 6 [9.0%]  (FALLTHRU,CAN_FALLTHRU,LOOP_EXIT)
	ble	.L4
@ BLOCK 6 freq:900 seq:4
@ PRED: 5 [9.0%]  (FALLTHRU,CAN_FALLTHRU,LOOP_EXIT)
	@ test.c:54
	.loc 1 54 0
	ldr	r0, .L10+60
	bl	xprintf
.LVL16:
	@ test.c:55
	.loc 1 55 0
	mov	r4, #3
	ldr	r3, .L10+40
	str	r4, [r3, #8]
	@ test.c:56
	.loc 1 56 0
	mov	r5, r3
	add	fp, r3, #12
	mov	r10, #102
	mov	r9, #9
	mov	r8, #12
@ SUCC: 7 [100.0%]  (FALLTHRU,CAN_FALLTHRU)
	ldr	r7, .L10+64
@ BLOCK 7 freq:9100 seq:5
@ PRED: 6 [100.0%]  (FALLTHRU,CAN_FALLTHRU) 7 [91.0%]  (DFS_BACK,CAN_FALLTHRU)
.L5:
	@ test.c:56
	.loc 1 56 0 is_stmt 0
	mov	r0, r4
	bl	__aeabi_i2d
.LVL17:
	bl	sqrt
.LVL18:
	str	r10, [sp, #8]
	str	r9, [sp, #4]
	str	r8, [sp]
	mov	r2, r0
	mov	r3, r1
	mov	r0, fp
	bl	_dbl2str
.LVL19:
	add	r6, r5, #40
	mov	r3, r0
	mov	r2, r4
	mov	r1, r7
	mov	r0, r6
	bl	sprintf
.LVL20:
	@ test.c:57
	.loc 1 57 0 is_stmt 1
	mov	r0, r6
	bl	xprintf
.LVL21:
	@ test.c:55
	.loc 1 55 0
	ldr	r4, [r5, #8]
	sub	r4, r4, #1
	str	r4, [r5, #8]
	cmp	r4, #1
@ SUCC: 7 [91.0%]  (DFS_BACK,CAN_FALLTHRU) 8 [9.0%]  (FALLTHRU,CAN_FALLTHRU,LOOP_EXIT)
	bgt	.L5
@ BLOCK 8 freq:900 seq:6
@ PRED: 7 [9.0%]  (FALLTHRU,CAN_FALLTHRU,LOOP_EXIT)
	@ test.c:59
	.loc 1 59 0
	mov	r0, r4
	bl	__aeabi_i2d
.LVL22:
	bl	atan
.LVL23:
	mov	r2, #0
	ldr	r3, .L10+68
	bl	__aeabi_dmul
.LVL24:
	sub	r5, r6, #40
	mov	r3, #102
	str	r3, [sp, #8]
	mov	r3, #9
	str	r3, [sp, #4]
	mov	r3, #12
	str	r3, [sp]
	mov	r2, r0
	mov	r3, r1
	add	r0, r5, #12
	bl	_dbl2str
.LVL25:
	add	r5, r5, #40
	mov	r3, r0
	mov	r2, r4
	ldr	r1, .L10+72
	mov	r0, r5
	bl	sprintf
.LVL26:
	@ test.c:60
	.loc 1 60 0
	mov	r0, r5
	bl	xprintf
.LVL27:
	@ test.c:63
	.loc 1 63 0
	ldr	r0, .L10+76
	bl	xprintf
.LVL28:
	@ test.c:64
	.loc 1 64 0
	ldr	r3, .L10+80
	ldr	r0, [r3, #8]
	bl	srand
.LVL29:
	@ test.c:65
	.loc 1 65 0
	bl	rand
.LVL30:
	mov	r2, r0
	ldr	r1, .L10+84
	mov	r0, r5
	bl	sprintf
.LVL31:
	@ test.c:66
	.loc 1 66 0
	mov	r0, r5
	bl	xprintf
.LVL32:
	@ test.c:71
	.loc 1 71 0
	ldr	r0, .L10+88
	add	sp, sp, #20
.LCFI2:
	.cfi_remember_state
	.cfi_def_cfa_offset 36
	@ sp needed
	pop	{r4, r5, r6, r7, r8, r9, r10, fp, lr}
.LCFI3:
	.cfi_restore 14
	.cfi_restore 11
	.cfi_restore 10
	.cfi_restore 9
	.cfi_restore 8
	.cfi_restore 7
	.cfi_restore 6
	.cfi_restore 5
	.cfi_restore 4
	.cfi_def_cfa_offset 0
@ SUCC: EXIT [100.0%] 
	bx	lr
@ BLOCK 9 freq:135 seq:7
@ PRED: 2 [15.0%]  (CAN_FALLTHRU)
.L9:
.LCFI4:
	.cfi_restore_state
	@ test.c:38
	.loc 1 38 0
	ldr	r0, .L10+92
	bl	xprintf
.LVL33:
@ SUCC: 4 [100.0%]  (CAN_FALLTHRU)
	b	.L3
.L11:
	.align	2
.L10:
	.word	uart0_putc
	.word	xfunc_out
	.word	uart0_getc
	.word	xfunc_in
	.word	.LC0
	.word	.LC1
	.word	.LC2
	.word	_heap_end_
	.word	_heap_start_
	.word	.LC3
	.word	.LANCHOR0
	.word	.LC5
	.word	.LC6
	.word	355
	.word	.LC7
	.word	.LC8
	.word	.LC9
	.word	1074790400
	.word	.LC10
	.word	.LC11
	.word	-536854528
	.word	.LC12
	.word	1234
	.word	.LC4
	.cfi_endproc
.LFE2:
	.size	main, .-main
	.bss
	.align	2
	.set	.LANCHOR0,. + 0
	.type	pc.6437, %object
	.size	pc.6437, 4
pc.6437:
	.space	4
	.type	j.6439, %object
	.size	j.6439, 4
j.6439:
	.space	4
	.type	i.6438, %object
	.size	i.6438, 4
i.6438:
	.space	4
	.type	dbuf.6441, %object
	.size	dbuf.6441, 26
dbuf.6441:
	.space	26
	.space	2
	.type	buf.6440, %object
	.size	buf.6440, 50
buf.6440:
	.space	50
	.section	.rodata.str1.4,"aMS",%progbits,1
	.align	2
.LC0:
	.ascii	"\012\000"
	.space	2
.LC1:
	.ascii	" <LPC2388 BIOS>\000"
.LC2:
	.ascii	" COM:115200bps\000"
	.space	1
.LC3:
	.ascii	"\012=== malloc test ===\012\000"
	.space	2
.LC4:
	.ascii	"malloc error\012\000"
	.space	2
.LC5:
	.ascii	"malloc2388(sizeof(char)*50) = (void *)%08p\012\000"
.LC6:
	.ascii	"\012=== integer division test ===\012\000"
.LC7:
	.ascii	"%d/%d = %d ... %d\012\000"
	.space	1
.LC8:
	.ascii	"\012=== floating point test ===\012\000"
	.space	2
.LC9:
	.ascii	"sqrt(%d)   = %s\012\000"
	.space	3
.LC10:
	.ascii	"4*atan(%d) = %s\012\000"
	.space	3
.LC11:
	.ascii	"\012=== random number test ===\012\000"
	.space	3
.LC12:
	.ascii	"rand() = %d\012\000"
	.text
.Letext0:
	.file 2 "c:\\users\\user\\desktop\\arm-dev\\arm-tools\\arm-none-eabi\\include\\machine\\_default_types.h"
	.file 3 "c:\\users\\user\\desktop\\arm-dev\\arm-tools\\arm-none-eabi\\include\\sys\\lock.h"
	.file 4 "c:\\users\\user\\desktop\\arm-dev\\arm-tools\\arm-none-eabi\\include\\sys\\_types.h"
	.file 5 "c:\\users\\user\\desktop\\arm-dev\\arm-tools\\lib\\gcc\\arm-none-eabi\\6.3.1\\include\\stddef.h"
	.file 6 "c:\\users\\user\\desktop\\arm-dev\\arm-tools\\arm-none-eabi\\include\\sys\\reent.h"
	.file 7 "c:\\users\\user\\desktop\\arm-dev\\arm-tools\\arm-none-eabi\\include\\sys\\_stdint.h"
	.file 8 "c:\\users\\user\\desktop\\arm-dev\\arm-tools\\arm-none-eabi\\include\\stdlib.h"
	.file 9 "c:\\users\\user\\desktop\\arm-dev\\arm-tools\\arm-none-eabi\\include\\math.h"
	.file 10 "../../include/malloc2388.h"
	.file 11 "../../include/xprintf.h"