	.cpu arm7tdmi-s
	.eabi_attribute 20, 1	@ Tag_ABI_FP_denormal
	.eabi_attribute 21, 1	@ Tag_ABI_FP_exceptions
	.eabi_attribute 23, 3	@ Tag_ABI_FP_number_model
	.eabi_attribute 24, 1	@ Tag_ABI_align8_needed
	.eabi_attribute 25, 1	@ Tag_ABI_align8_preserved
	.eabi_attribute 26, 1	@ Tag_ABI_enum_size
	.eabi_attribute 30, 1	@ Tag_ABI_optimization_goals
	.eabi_attribute 34, 0	@ Tag_CPU_unaligned_access
	.eabi_attribute 18, 4	@ Tag_ABI_PCS_wchar_t
	.file	"main.c"
	.text
.Ltext0:
	.cfi_sections	.debug_frame
	.align	2
	.global	scan_files
	.syntax unified
	.arm
	.fpu softvfp
	.type	scan_files, %function
scan_files:
.LFB1:
	.file 1 "main.c"
	@ main.c:14
	.loc 1 14 0
	.cfi_startproc
	@ Function supports interworking.
	@ args = 0, pretend = 0, frame = 48
	@ frame_needed = 0, uses_anonymous_args = 0
.LVL0:
@ BLOCK 2 freq:1200 seq:0
@ PRED: ENTRY [100.0%]  (FALLTHRU)
	push	{r4, r5, r6, r7, r8, r9, r10, fp, lr}
.LCFI0:
	.cfi_def_cfa_offset 36
	.cfi_offset 4, -36
	.cfi_offset 5, -32
	.cfi_offset 6, -28
	.cfi_offset 7, -24
	.cfi_offset 8, -20
	.cfi_offset 9, -16
	.cfi_offset 10, -12
	.cfi_offset 11, -8
	.cfi_offset 14, -4
	sub	sp, sp, #52
.LCFI1:
	.cfi_def_cfa_offset 88
	mov	r5, r0
	@ main.c:21
	.loc 1 21 0
	mov	r1, r0
	mov	r0, sp
.LVL1:
	bl	f_opendir
.LVL2:
	@ main.c:22
	.loc 1 22 0
	subs	r6, r0, #0
@ SUCC: 3 [61.0%]  (FALLTHRU,CAN_FALLTHRU) 13 [39.0%]  (CAN_FALLTHRU)
	bne	.L3
@ BLOCK 3 freq:732 seq:1
@ PRED: 2 [61.0%]  (FALLTHRU,CAN_FALLTHRU)
	@ main.c:24
	.loc 1 24 0
	ldr	r4, .L10
	@ main.c:33
	.loc 1 33 0
	ldr	r10, .L10+4
	@ main.c:34
	.loc 1 34 0
	add	r8, r4, #9
	ldr	fp, .L10+8
	@ main.c:28
	.loc 1 28 0
	ldr	r9, .L10+12
@ SUCC: 6 [100.0%]  (CAN_FALLTHRU)
	b	.L8
@ BLOCK 4 freq:4705 seq:2
@ PRED: 8 [50.0%]  (CAN_FALLTHRU)
.L5:
	@ main.c:33
	.loc 1 33 0
	mov	r1, r10
	mov	r0, r5
.LVL3:
	bl	xstrcmp
.LVL4:
	cmp	r0, #0
@ SUCC: 5 [50.0%]  (FALLTHRU,CAN_FALLTHRU) 11 [50.0%]  (CAN_FALLTHRU)
	beq	.L7
@ BLOCK 5 freq:2352 seq:3
@ PRED: 4 [50.0%]  (FALLTHRU,CAN_FALLTHRU)
	@ main.c:33
	.loc 1 33 0 is_stmt 0
	mov	r2, r8
	mov	r1, r5
	ldr	r0, .L10+16
@ SUCC: 6 [100.0%]  (FALLTHRU,DFS_BACK,CAN_FALLTHRU)
	bl	xprintf
.LVL5:
@ BLOCK 6 freq:10000 seq:4
@ PRED: 10 [100.0%]  (DFS_BACK,CAN_FALLTHRU) 5 [100.0%]  (FALLTHRU,DFS_BACK,CAN_FALLTHRU) 3 [100.0%]  (CAN_FALLTHRU) 11 [100.0%]  (DFS_BACK,CAN_FALLTHRU)
.L8:
	@ main.c:24
	.loc 1 24 0 is_stmt 1
	mov	r1, r4
	mov	r0, sp
	bl	f_readdir
.LVL6:
	@ main.c:25
	.loc 1 25 0
	subs	r6, r0, #0
@ SUCC: 12 [3.0%]  (CAN_FALLTHRU,LOOP_EXIT) 7 [97.0%]  (FALLTHRU,CAN_FALLTHRU)
	bne	.L4
@ BLOCK 7 freq:9700 seq:5
@ PRED: 6 [97.0%]  (FALLTHRU,CAN_FALLTHRU)
	@ main.c:25
	.loc 1 25 0 is_stmt 0
	ldrb	r3, [r4, #9]	@ zero_extendqisi2
	cmp	r3, #0
@ SUCC: 12 [3.0%]  (CAN_FALLTHRU,LOOP_EXIT) 8 [97.0%]  (FALLTHRU,CAN_FALLTHRU)
	beq	.L4
@ BLOCK 8 freq:9409 seq:6
@ PRED: 7 [97.0%]  (FALLTHRU,CAN_FALLTHRU)
	@ main.c:26
	.loc 1 26 0 is_stmt 1
	ldrb	r3, [r4, #8]	@ zero_extendqisi2
	tst	r3, #16
@ SUCC: 9 [50.0%]  (FALLTHRU,CAN_FALLTHRU) 4 [50.0%]  (CAN_FALLTHRU)
	beq	.L5
@ BLOCK 9 freq:4705 seq:7
@ PRED: 8 [50.0%]  (FALLTHRU,CAN_FALLTHRU)
	@ main.c:27
	.loc 1 27 0
	mov	r0, r5
.LVL7:
	bl	xstrlen
.LVL8:
	mov	r7, r0
.LVL9:
	@ main.c:28
	.loc 1 28 0
	mov	r2, r8
	mov	r1, r9
	add	r0, r5, r0
.LVL10:
	bl	xsprintf
.LVL11:
	@ main.c:29
	.loc 1 29 0
	mov	r0, r5
	bl	scan_files
.LVL12:
	@ main.c:30
	.loc 1 30 0
	subs	r6, r0, #0
@ SUCC: 12 [3.0%]  (CAN_FALLTHRU,LOOP_EXIT) 10 [97.0%]  (FALLTHRU,CAN_FALLTHRU)
	bne	.L4
@ BLOCK 10 freq:4563 seq:8
@ PRED: 9 [97.0%]  (FALLTHRU,CAN_FALLTHRU)
	@ main.c:31
	.loc 1 31 0
	mov	r3, #0
	strb	r3, [r5, r7]
@ SUCC: 6 [100.0%]  (DFS_BACK,CAN_FALLTHRU)
	b	.L8
.LVL13:
@ BLOCK 11 freq:2352 seq:9
@ PRED: 4 [50.0%]  (CAN_FALLTHRU)
.L7:
	@ main.c:34
	.loc 1 34 0
	mov	r1, r8
	mov	r0, fp
	bl	xprintf
.LVL14:
@ SUCC: 6 [100.0%]  (DFS_BACK,CAN_FALLTHRU)
	b	.L8
.LVL15:
@ BLOCK 12 freq:732 seq:10
@ PRED: 6 [3.0%]  (CAN_FALLTHRU,LOOP_EXIT) 7 [3.0%]  (CAN_FALLTHRU,LOOP_EXIT) 9 [3.0%]  (CAN_FALLTHRU,LOOP_EXIT)
.L4:
	@ main.c:37
	.loc 1 37 0
	mov	r0, sp
@ SUCC: 13 [100.0%]  (FALLTHRU,CAN_FALLTHRU)
	bl	f_closedir
.LVL16:
@ BLOCK 13 freq:1200 seq:11
@ PRED: 12 [100.0%]  (FALLTHRU,CAN_FALLTHRU) 2 [39.0%]  (CAN_FALLTHRU)
.L3:
	@ main.c:41
	.loc 1 41 0
	mov	r0, r6
	add	sp, sp, #52
.LCFI2:
	.cfi_def_cfa_offset 36
	@ sp needed
	pop	{r4, r5, r6, r7, r8, r9, r10, fp, lr}
.LCFI3:
	.cfi_restore 14
	.cfi_restore 11
	.cfi_restore 10
	.cfi_restore 9
	.cfi_restore 8
	.cfi_restore 7
	.cfi_restore 6
	.cfi_restore 5
	.cfi_restore 4
	.cfi_def_cfa_offset 0
.LVL17:
@ SUCC: EXIT [100.0%] 
	bx	lr
.L11:
	.align	2
.L10:
	.word	.LANCHOR0
	.word	.LC1
	.word	.LC3
	.word	.LC0
	.word	.LC2
	.cfi_endproc
.LFE1:
	.size	scan_files, .-scan_files
	.align	2
	.global	main
	.syntax unified
	.arm
	.fpu softvfp
	.type	main, %function
main:
.LFB2:
	@ main.c:45
	.loc 1 45 0
	.cfi_startproc
	@ Function supports interworking.
	@ args = 0, pretend = 0, frame = 0
	@ frame_needed = 0, uses_anonymous_args = 0
@ BLOCK 2 freq:10000 seq:0
@ PRED: ENTRY [100.0%]  (FALLTHRU)
	push	{r4, lr}
.LCFI4:
	.cfi_def_cfa_offset 8
	.cfi_offset 4, -8
	.cfi_offset 14, -4
	@ main.c:49
	.loc 1 49 0
	ldr	r0, .L17
	bl	xprintf
.LVL18:
	@ main.c:50
	.loc 1 50 0
	mov	r2, #1
	ldr	r1, .L17+4
	ldr	r0, .L17+8
	bl	f_mount
.LVL19:
	@ main.c:51
	.loc 1 51 0
	subs	r4, r0, #0
@ SUCC: 5 [39.0%]  (CAN_FALLTHRU) 3 [61.0%]  (FALLTHRU,CAN_FALLTHRU)
	beq	.L16
@ BLOCK 3 freq:6100 seq:1
@ PRED: 2 [61.0%]  (FALLTHRU,CAN_FALLTHRU)
	@ main.c:55
	.loc 1 55 0
	ldr	r0, .L17+12
.LVL20:
@ SUCC: 4 [100.0%]  (FALLTHRU,CAN_FALLTHRU)
	bl	xprintf
.LVL21:
@ BLOCK 4 freq:10000 seq:2
@ PRED: 3 [100.0%]  (FALLTHRU,CAN_FALLTHRU) 5 [100.0%]  (CAN_FALLTHRU)
.L14:
	@ main.c:59
	.loc 1 59 0
	mov	r0, r4
	pop	{r4, lr}
.LCFI5:
	.cfi_remember_state
	.cfi_restore 14
	.cfi_restore 4
	.cfi_def_cfa_offset 0
.LVL22:
@ SUCC: EXIT [100.0%] 
	bx	lr
.LVL23:
@ BLOCK 5 freq:3900 seq:3
@ PRED: 2 [39.0%]  (CAN_FALLTHRU)
.L16:
.LCFI6:
	.cfi_restore_state
	@ main.c:52
	.loc 1 52 0
	ldr	r4, .L17+16
	mov	r2, #255
	ldr	r1, .L17+20
	mov	r0, r4
.LVL24:
	bl	xstrncpy_n
.LVL25:
	@ main.c:53
	.loc 1 53 0
	mov	r0, r4
	bl	scan_files
.LVL26:
	mov	r4, r0
.LVL27:
@ SUCC: 4 [100.0%]  (CAN_FALLTHRU)
	b	.L14
.L18:
	.align	2
.L17:
	.word	.LC4
	.word	.LC5
	.word	fs
	.word	.LC6
	.word	buff
	.word	.LC1
	.cfi_endproc
.LFE2:
	.size	main, .-main
	.comm	buff,256,4
	.comm	fs,564,4
	.bss
	.align	2
	.set	.LANCHOR0,. + 0
	.type	fno.4502, %object
	.size	fno.4502, 24
fno.4502:
	.space	24
	.section	.rodata.str1.4,"aMS",%progbits,1
	.align	2
.LC0:
	.ascii	"/%s\000"
.LC1:
	.ascii	"/\000"
	.space	2
.LC2:
	.ascii	"%s/%s\012\000"
	.space	1
.LC3:
	.ascii	"/%s\012\000"
	.space	3
.LC4:
	.ascii	"\012\000"
	.space	2
.LC5:
	.ascii	"\000"
	.space	3
.LC6:
	.ascii	"Drive not ready\012\000"
	.text
.Letext0:
	.file 2 "../../include/integer.h"
	.file 3 "../../include/ff.h"
	.file 4 "../../include/xprintf.h"