Archive member included to satisfy reference by file (symbol)

/usr/lib//arm-none-eabi/lib/libm.a(lib_a-s_atan.o)
                              lpc2388/rom_func.o (atan)
/usr/lib//arm-none-eabi/lib/libm.a(lib_a-s_cbrt.o)
                              lpc2388/rom_func.o (cbrt)
/usr/lib//arm-none-eabi/lib/libm.a(lib_a-s_ceil.o)
                              lpc2388/rom_func.o (ceil)
/usr/lib//arm-none-eabi/lib/libm.a(lib_a-s_cos.o)
                              lpc2388/rom_func.o (cos)
/usr/lib//arm-none-eabi/lib/libm.a(lib_a-s_erf.o)
                              lpc2388/rom_func.o (erf)
/usr/lib//arm-none-eabi/lib/libm.a(lib_a-s_fabs.o)
                              /usr/lib//arm-none-eabi/lib/libm.a(lib_a-s_atan.o) (fabs)
/usr/lib//arm-none-eabi/lib/libm.a(lib_a-s_floor.o)
                              lpc2388/rom_func.o (floor)
/usr/lib//arm-none-eabi/lib/libm.a(lib_a-s_modf.o)
                              lpc2388/rom_func.o (modf)
/usr/lib//arm-none-eabi/lib/libm.a(lib_a-s_round.o)
                              lpc2388/rom_func.o (round)
/usr/lib//arm-none-eabi/lib/libm.a(lib_a-s_sin.o)
                              lpc2388/rom_func.o (sin)
/usr/lib//arm-none-eabi/lib/libm.a(lib_a-s_tan.o)
                              lpc2388/rom_func.o (tan)
/usr/lib//arm-none-eabi/lib/libm.a(lib_a-s_tanh.o)
                              lpc2388/rom_func.o (tanh)
/usr/lib//arm-none-eabi/lib/libm.a(lib_a-s_trunc.o)
                              lpc2388/rom_func.o (trunc)
/usr/lib//arm-none-eabi/lib/libm.a(lib_a-w_acos.o)
                              lpc2388/rom_func.o (acos)
/usr/lib//arm-none-eabi/lib/libm.a(lib_a-w_asin.o)
                              lpc2388/rom_func.o (asin)
/usr/lib//arm-none-eabi/lib/libm.a(lib_a-w_atan2.o)
                              lpc2388/rom_func.o (atan2)
/usr/lib//arm-none-eabi/lib/libm.a(lib_a-w_cosh.o)
                              lpc2388/rom_func.o (cosh)
/usr/lib//arm-none-eabi/lib/libm.a(lib_a-w_exp.o)
                              lpc2388/rom_func.o (exp)
/usr/lib//arm-none-eabi/lib/libm.a(lib_a-w_fmod.o)
                              lpc2388/rom_func.o (fmod)
/usr/lib//arm-none-eabi/lib/libm.a(lib_a-w_hypot.o)
                              lpc2388/rom_func.o (hypot)
/usr/lib//arm-none-eabi/lib/libm.a(lib_a-w_log.o)
                              lpc2388/rom_func.o (log)
/usr/lib//arm-none-eabi/lib/libm.a(lib_a-w_log10.o)
                              lpc2388/rom_func.o (log10)
/usr/lib//arm-none-eabi/lib/libm.a(lib_a-w_pow.o)
                              lpc2388/rom_func.o (pow)
/usr/lib//arm-none-eabi/lib/libm.a(lib_a-w_sinh.o)
                              lpc2388/rom_func.o (sinh)
/usr/lib//arm-none-eabi/lib/libm.a(lib_a-w_sqrt.o)
                              lpc2388/rom_func.o (sqrt)
/usr/lib//arm-none-eabi/lib/libm.a(lib_a-e_acos.o)
                              /usr/lib//arm-none-eabi/lib/libm.a(lib_a-w_acos.o) (__ieee754_acos)
/usr/lib//arm-none-eabi/lib/libm.a(lib_a-e_asin.o)
                              /usr/lib//arm-none-eabi/lib/libm.a(lib_a-w_asin.o) (__ieee754_asin)
/usr/lib//arm-none-eabi/lib/libm.a(lib_a-e_atan2.o)
                              /usr/lib//arm-none-eabi/lib/libm.a(lib_a-w_atan2.o) (__ieee754_atan2)
/usr/lib//arm-none-eabi/lib/libm.a(lib_a-e_cosh.o)
                              /usr/lib//arm-none-eabi/lib/libm.a(lib_a-w_cosh.o) (__ieee754_cosh)
/usr/lib//arm-none-eabi/lib/libm.a(lib_a-e_exp.o)
                              /usr/lib//arm-none-eabi/lib/libm.a(lib_a-s_erf.o) (__ieee754_exp)
/usr/lib//arm-none-eabi/lib/libm.a(lib_a-e_fmod.o)
                              /usr/lib//arm-none-eabi/lib/libm.a(lib_a-w_fmod.o) (__ieee754_fmod)
/usr/lib//arm-none-eabi/lib/libm.a(lib_a-e_hypot.o)
                              /usr/lib//arm-none-eabi/lib/libm.a(lib_a-w_hypot.o) (__ieee754_hypot)
/usr/lib//arm-none-eabi/lib/libm.a(lib_a-e_log.o)
                              /usr/lib//arm-none-eabi/lib/libm.a(lib_a-w_log.o) (__ieee754_log)
/usr/lib//arm-none-eabi/lib/libm.a(lib_a-e_log10.o)
                              /usr/lib//arm-none-eabi/lib/libm.a(lib_a-w_log10.o) (__ieee754_log10)
/usr/lib//arm-none-eabi/lib/libm.a(lib_a-e_pow.o)
                              /usr/lib//arm-none-eabi/lib/libm.a(lib_a-w_pow.o) (__ieee754_pow)
/usr/lib//arm-none-eabi/lib/libm.a(lib_a-e_rem_pio2.o)
                              /usr/lib//arm-none-eabi/lib/libm.a(lib_a-s_cos.o) (__ieee754_rem_pio2)
/usr/lib//arm-none-eabi/lib/libm.a(lib_a-e_sinh.o)
                              /usr/lib//arm-none-eabi/lib/libm.a(lib_a-w_sinh.o) (__ieee754_sinh)
/usr/lib//arm-none-eabi/lib/libm.a(lib_a-e_sqrt.o)
                              /usr/lib//arm-none-eabi/lib/libm.a(lib_a-w_sqrt.o) (__ieee754_sqrt)
/usr/lib//arm-none-eabi/lib/libm.a(lib_a-k_cos.o)
                              /usr/lib//arm-none-eabi/lib/libm.a(lib_a-s_cos.o) (__kernel_cos)
/usr/lib//arm-none-eabi/lib/libm.a(lib_a-k_rem_pio2.o)
                              /usr/lib//arm-none-eabi/lib/libm.a(lib_a-e_rem_pio2.o) (__kernel_rem_pio2)
/usr/lib//arm-none-eabi/lib/libm.a(lib_a-k_sin.o)
                              /usr/lib//arm-none-eabi/lib/libm.a(lib_a-s_cos.o) (__kernel_sin)
/usr/lib//arm-none-eabi/lib/libm.a(lib_a-k_tan.o)
                              /usr/lib//arm-none-eabi/lib/libm.a(lib_a-s_tan.o) (__kernel_tan)
/usr/lib//arm-none-eabi/lib/libm.a(lib_a-s_expm1.o)
                              /usr/lib//arm-none-eabi/lib/libm.a(lib_a-s_tanh.o) (expm1)
/usr/lib//arm-none-eabi/lib/libm.a(lib_a-s_finite.o)
                              /usr/lib//arm-none-eabi/lib/libm.a(lib_a-w_exp.o) (finite)
/usr/lib//arm-none-eabi/lib/libm.a(lib_a-s_lib_ver.o)
                              /usr/lib//arm-none-eabi/lib/libm.a(lib_a-w_acos.o) (__fdlib_version)
/usr/lib//arm-none-eabi/lib/libm.a(lib_a-s_nan.o)
                              /usr/lib//arm-none-eabi/lib/libm.a(lib_a-w_acos.o) (nan)
/usr/lib//arm-none-eabi/lib/libm.a(lib_a-s_rint.o)
                              /usr/lib//arm-none-eabi/lib/libm.a(lib_a-w_pow.o) (rint)
/usr/lib//arm-none-eabi/lib/libm.a(lib_a-s_scalbn.o)
                              /usr/lib//arm-none-eabi/lib/libm.a(lib_a-e_pow.o) (scalbn)
/usr/lib//arm-none-eabi/lib/libm.a(lib_a-math_err.o)
                              /usr/lib//arm-none-eabi/lib/libm.a(lib_a-s_expm1.o) (__math_oflow)
/usr/lib//arm-none-eabi/lib/libc.a(lib_a-atof.o)
                              lpc2388/rom_func.o (atof)
/usr/lib//arm-none-eabi/lib/libc.a(lib_a-atoi.o)
                              lpc2388/rom_func.o (atoi)
/usr/lib//arm-none-eabi/lib/libc.a(lib_a-atol.o)
                              lpc2388/rom_func.o (atol)
/usr/lib//arm-none-eabi/lib/libc.a(lib_a-bsearch.o)
                              lpc2388/rom_func.o (bsearch)
/usr/lib//arm-none-eabi/lib/libc.a(lib_a-ctype_.o)
                              lpc2388/rom_func.o (_ctype_)
/usr/lib//arm-none-eabi/lib/libc.a(lib_a-errno.o)
                              /usr/lib//arm-none-eabi/lib/libm.a(lib_a-w_acos.o) (__errno)
/usr/lib//arm-none-eabi/lib/libc.a(lib_a-impure.o)
                              /usr/lib//arm-none-eabi/lib/libc.a(lib_a-errno.o) (_impure_ptr)
/usr/lib//arm-none-eabi/lib/libc.a(lib_a-malloc.o)
                              lpc2388/rom_func.o (malloc)
/usr/lib//arm-none-eabi/lib/libc.a(lib_a-mallocr.o)
                              /usr/lib//arm-none-eabi/lib/libc.a(lib_a-malloc.o) (_malloc_r)
/usr/lib//arm-none-eabi/lib/libc.a(lib_a-memchr-stub.o)
                              lpc2388/rom_func.o (memchr)
/usr/lib//arm-none-eabi/lib/libc.a(lib_a-memcmp.o)
                              lpc2388/rom_func.o (memcmp)
/usr/lib//arm-none-eabi/lib/libc.a(lib_a-memcpy-stub.o)
                              lpc2388/rom_func.o (memcpy)
/usr/lib//arm-none-eabi/lib/libc.a(lib_a-memmove.o)
                              lpc2388/rom_func.o (memmove)
/usr/lib//arm-none-eabi/lib/libc.a(lib_a-memset.o)
                              lpc2388/tinymalloc.o (memset)
/usr/lib//arm-none-eabi/lib/libc.a(lib_a-mlock.o)
                              /usr/lib//arm-none-eabi/lib/libc.a(lib_a-mallocr.o) (__malloc_lock)
/usr/lib//arm-none-eabi/lib/libc.a(lib_a-qsort.o)
                              lpc2388/rom_func.o (qsort)
/usr/lib//arm-none-eabi/lib/libc.a(lib_a-rand.o)
                              lpc2388/rom_func.o (srand)
/usr/lib//arm-none-eabi/lib/libc.a(lib_a-sbrkr.o)
                              /usr/lib//arm-none-eabi/lib/libc.a(lib_a-mallocr.o) (_sbrk_r)
/usr/lib//arm-none-eabi/lib/libc.a(lib_a-sprintf.o)
                              lpc2388/rom_func.o (sprintf)
/usr/lib//arm-none-eabi/lib/libc.a(lib_a-strcat.o)
                              lpc2388/rom_func.o (strcat)
/usr/lib//arm-none-eabi/lib/libc.a(lib_a-strchr.o)
                              lpc2388/rom_func.o (strchr)
/usr/lib//arm-none-eabi/lib/libc.a(lib_a-strcpy.o)
                              lpc2388/rom_func.o (strcpy)
/usr/lib//arm-none-eabi/lib/libc.a(lib_a-strcspn.o)
                              lpc2388/rom_func.o (strcspn)
/usr/lib//arm-none-eabi/lib/libc.a(lib_a-strncat.o)
                              lpc2388/rom_func.o (strncat)
/usr/lib//arm-none-eabi/lib/libc.a(lib_a-strncpy.o)
                              lpc2388/rom_func.o (strncpy)
/usr/lib//arm-none-eabi/lib/libc.a(lib_a-strrchr.o)
                              lpc2388/rom_func.o (strrchr)
/usr/lib//arm-none-eabi/lib/libc.a(lib_a-strspn.o)
                              lpc2388/rom_func.o (strspn)
/usr/lib//arm-none-eabi/lib/libc.a(lib_a-strstr.o)
                              lpc2388/rom_func.o (strstr)
/usr/lib//arm-none-eabi/lib/libc.a(lib_a-strtod.o)
                              /usr/lib//arm-none-eabi/lib/libc.a(lib_a-atof.o) (strtod)
/usr/lib//arm-none-eabi/lib/libc.a(lib_a-strtok.o)
                              lpc2388/rom_func.o (strtok)
/usr/lib//arm-none-eabi/lib/libc.a(lib_a-strtok_r.o)
                              /usr/lib//arm-none-eabi/lib/libc.a(lib_a-strtok.o) (__strtok_r)
/usr/lib//arm-none-eabi/lib/libc.a(lib_a-strtol.o)
                              /usr/lib//arm-none-eabi/lib/libc.a(lib_a-atoi.o) (_strtol_r)
/usr/lib//arm-none-eabi/lib/libc.a(lib_a-svfprintf.o)
                              /usr/lib//arm-none-eabi/lib/libc.a(lib_a-sprintf.o) (_svfprintf_r)
/usr/lib//arm-none-eabi/lib/libc.a(lib_a-vsprintf.o)
                              lpc2388/rom_func.o (vsprintf)
/usr/lib//arm-none-eabi/lib/libc.a(lib_a-dtoa.o)
                              /usr/lib//arm-none-eabi/lib/libc.a(lib_a-svfprintf.o) (_dtoa_r)
/usr/lib//arm-none-eabi/lib/libc.a(lib_a-freer.o)
                              /usr/lib//arm-none-eabi/lib/libc.a(lib_a-malloc.o) (_free_r)
/usr/lib//arm-none-eabi/lib/libc.a(lib_a-gdtoa-gethex.o)
                              /usr/lib//arm-none-eabi/lib/libc.a(lib_a-strtod.o) (__gethex)
/usr/lib//arm-none-eabi/lib/libc.a(lib_a-gdtoa-hexnan.o)
                              /usr/lib//arm-none-eabi/lib/libc.a(lib_a-strtod.o) (__match)
/usr/lib//arm-none-eabi/lib/libc.a(lib_a-lnumeric.o)
                              /usr/lib//arm-none-eabi/lib/libc.a(lib_a-strtod.o) (_C_numeric_locale)
/usr/lib//arm-none-eabi/lib/libc.a(lib_a-locale.o)
                              /usr/lib//arm-none-eabi/lib/libc.a(lib_a-strtod.o) (__global_locale)
/usr/lib//arm-none-eabi/lib/libc.a(lib_a-localeconv.o)
                              /usr/lib//arm-none-eabi/lib/libc.a(lib_a-svfprintf.o) (_localeconv_r)
/usr/lib//arm-none-eabi/lib/libc.a(lib_a-mbtowc_r.o)
                              /usr/lib//arm-none-eabi/lib/libc.a(lib_a-locale.o) (__ascii_mbtowc)
/usr/lib//arm-none-eabi/lib/libc.a(lib_a-mprec.o)
                              /usr/lib//arm-none-eabi/lib/libc.a(lib_a-strtod.o) (_Balloc)
/usr/lib//arm-none-eabi/lib/libc.a(lib_a-reent.o)
                              /usr/lib//arm-none-eabi/lib/libc.a(lib_a-sbrkr.o) (errno)
/usr/lib//arm-none-eabi/lib/libc.a(lib_a-sf_nan.o)
                              /usr/lib//arm-none-eabi/lib/libc.a(lib_a-strtod.o) (nanf)
/usr/lib//arm-none-eabi/lib/libc.a(lib_a-strcmp.o)
                              /usr/lib//arm-none-eabi/lib/libc.a(lib_a-locale.o) (strcmp)
/usr/lib//arm-none-eabi/lib/libc.a(lib_a-strlen-stub.o)
                              /usr/lib//arm-none-eabi/lib/libc.a(lib_a-strstr.o) (strlen)
/usr/lib//arm-none-eabi/lib/libc.a(lib_a-strncmp.o)
                              /usr/lib//arm-none-eabi/lib/libc.a(lib_a-strtod.o) (strncmp)
/usr/lib//arm-none-eabi/lib/libc.a(lib_a-strnlen.o)
                              /usr/lib//arm-none-eabi/lib/libc.a(lib_a-strstr.o) (strnlen)
/usr/lib//arm-none-eabi/lib/libc.a(lib_a-svfiprintf.o)
                              /usr/lib//arm-none-eabi/lib/libc.a(lib_a-svfprintf.o) (__ssprint_r)
/usr/lib//arm-none-eabi/lib/libc.a(lib_a-wctomb_r.o)
                              /usr/lib//arm-none-eabi/lib/libc.a(lib_a-locale.o) (__ascii_wctomb)
/usr/lib//arm-none-eabi/lib/libc.a(lib_a-assert.o)
                              /usr/lib//arm-none-eabi/lib/libc.a(lib_a-dtoa.o) (__assert_func)
/usr/lib//arm-none-eabi/lib/libc.a(lib_a-callocr.o)
                              /usr/lib//arm-none-eabi/lib/libc.a(lib_a-mprec.o) (_calloc_r)
/usr/lib//arm-none-eabi/lib/libc.a(lib_a-fiprintf.o)
                              /usr/lib//arm-none-eabi/lib/libc.a(lib_a-assert.o) (fiprintf)
/usr/lib//arm-none-eabi/lib/libc.a(lib_a-reallocr.o)
                              /usr/lib//arm-none-eabi/lib/libc.a(lib_a-svfiprintf.o) (_realloc_r)
/usr/lib//arm-none-eabi/lib/libc.a(lib_a-vfiprintf.o)
                              /usr/lib//arm-none-eabi/lib/libc.a(lib_a-fiprintf.o) (_vfiprintf_r)
/usr/lib//arm-none-eabi/lib/libc.a(lib_a-wsetup.o)
                              /usr/lib//arm-none-eabi/lib/libc.a(lib_a-vfiprintf.o) (__swsetup_r)
/usr/lib//arm-none-eabi/lib/libc.a(lib_a-abort.o)
                              /usr/lib//arm-none-eabi/lib/libc.a(lib_a-assert.o) (abort)
/usr/lib//arm-none-eabi/lib/libc.a(lib_a-fflush.o)
                              /usr/lib//arm-none-eabi/lib/libc.a(lib_a-vfiprintf.o) (_fflush_r)
/usr/lib//arm-none-eabi/lib/libc.a(lib_a-findfp.o)
                              /usr/lib//arm-none-eabi/lib/libc.a(lib_a-vfiprintf.o) (__sinit)
/usr/lib//arm-none-eabi/lib/libc.a(lib_a-fputwc.o)
                              /usr/lib//arm-none-eabi/lib/libc.a(lib_a-vfiprintf.o) (_fputwc_r)
/usr/lib//arm-none-eabi/lib/libc.a(lib_a-fvwrite.o)
                              /usr/lib//arm-none-eabi/lib/libc.a(lib_a-vfiprintf.o) (__sfvwrite_r)
/usr/lib//arm-none-eabi/lib/libc.a(lib_a-fwalk.o)
                              /usr/lib//arm-none-eabi/lib/libc.a(lib_a-findfp.o) (_fwalk)
/usr/lib//arm-none-eabi/lib/libc.a(lib_a-makebuf.o)
                              /usr/lib//arm-none-eabi/lib/libc.a(lib_a-wsetup.o) (__smakebuf_r)
/usr/lib//arm-none-eabi/lib/libc.a(lib_a-signal.o)
                              /usr/lib//arm-none-eabi/lib/libc.a(lib_a-abort.o) (raise)
/usr/lib//arm-none-eabi/lib/libc.a(lib_a-signalr.o)
                              /usr/lib//arm-none-eabi/lib/libc.a(lib_a-signal.o) (_kill_r)
/usr/lib//arm-none-eabi/lib/libc.a(lib_a-stdio.o)
                              /usr/lib//arm-none-eabi/lib/libc.a(lib_a-findfp.o) (__sread)
/usr/lib//arm-none-eabi/lib/libc.a(lib_a-wbuf.o)
                              /usr/lib//arm-none-eabi/lib/libc.a(lib_a-fputwc.o) (__swbuf_r)
/usr/lib//arm-none-eabi/lib/libc.a(lib_a-wcrtomb.o)
                              /usr/lib//arm-none-eabi/lib/libc.a(lib_a-fputwc.o) (_wcrtomb_r)
/usr/lib//arm-none-eabi/lib/libc.a(lib_a-writer.o)
                              /usr/lib//arm-none-eabi/lib/libc.a(lib_a-stdio.o) (_write_r)
/usr/lib//arm-none-eabi/lib/libc.a(lib_a-closer.o)
                              /usr/lib//arm-none-eabi/lib/libc.a(lib_a-stdio.o) (_close_r)
/usr/lib//arm-none-eabi/lib/libc.a(lib_a-fclose.o)
                              /usr/lib//arm-none-eabi/lib/libc.a(lib_a-findfp.o) (_fclose_r)
/usr/lib//arm-none-eabi/lib/libc.a(lib_a-fstatr.o)
                              /usr/lib//arm-none-eabi/lib/libc.a(lib_a-makebuf.o) (_fstat_r)
/usr/lib//arm-none-eabi/lib/libc.a(lib_a-isattyr.o)
                              /usr/lib//arm-none-eabi/lib/libc.a(lib_a-makebuf.o) (_isatty_r)
/usr/lib//arm-none-eabi/lib/libc.a(lib_a-lseekr.o)
                              /usr/lib//arm-none-eabi/lib/libc.a(lib_a-stdio.o) (_lseek_r)
/usr/lib//arm-none-eabi/lib/libc.a(lib_a-readr.o)
                              /usr/lib//arm-none-eabi/lib/libc.a(lib_a-stdio.o) (_read_r)
/usr/lib//arm-none-eabi/lib/libnosys.a(close.o)
                              /usr/lib//arm-none-eabi/lib/libc.a(lib_a-closer.o) (_close)
/usr/lib//arm-none-eabi/lib/libnosys.a(fstat.o)
                              /usr/lib//arm-none-eabi/lib/libc.a(lib_a-fstatr.o) (_fstat)
/usr/lib//arm-none-eabi/lib/libnosys.a(getpid.o)
                              /usr/lib//arm-none-eabi/lib/libc.a(lib_a-signalr.o) (_getpid)
/usr/lib//arm-none-eabi/lib/libnosys.a(isatty.o)
                              /usr/lib//arm-none-eabi/lib/libc.a(lib_a-isattyr.o) (_isatty)
/usr/lib//arm-none-eabi/lib/libnosys.a(kill.o)
                              /usr/lib//arm-none-eabi/lib/libc.a(lib_a-signalr.o) (_kill)
/usr/lib//arm-none-eabi/lib/libnosys.a(lseek.o)
                              /usr/lib//arm-none-eabi/lib/libc.a(lib_a-lseekr.o) (_lseek)
/usr/lib//arm-none-eabi/lib/libnosys.a(read.o)
                              /usr/lib//arm-none-eabi/lib/libc.a(lib_a-readr.o) (_read)
/usr/lib//arm-none-eabi/lib/libnosys.a(sbrk.o)
                              /usr/lib//arm-none-eabi/lib/libc.a(lib_a-sbrkr.o) (_sbrk)
/usr/lib//arm-none-eabi/lib/libnosys.a(write.o)
                              /usr/lib//arm-none-eabi/lib/libc.a(lib_a-writer.o) (_write)
/usr/lib//arm-none-eabi/lib/libnosys.a(_exit.o)
                              /usr/lib//arm-none-eabi/lib/libc.a(lib_a-abort.o) (_exit)
/usr/lib/gcc/arm-none-eabi/10.3.1/libgcc.a(_arm_muldf3.o)
                              lpc2388/rom_func.o (__aeabi_dmul)
/usr/lib/gcc/arm-none-eabi/10.3.1/libgcc.a(_arm_mulsf3.o)
                              lpc2388/rom_func.o (__aeabi_fmul)
/usr/lib/gcc/arm-none-eabi/10.3.1/libgcc.a(_udivsi3.o)
                              lpc2388/ff.o (__aeabi_uidiv)
/usr/lib/gcc/arm-none-eabi/10.3.1/libgcc.a(_divsi3.o)
                              lpc2388/rom_func.o (__aeabi_idiv)
/usr/lib/gcc/arm-none-eabi/10.3.1/libgcc.a(_dvmd_tls.o)
                              /usr/lib/gcc/arm-none-eabi/10.3.1/libgcc.a(_udivsi3.o) (__aeabi_idiv0)
/usr/lib/gcc/arm-none-eabi/10.3.1/libgcc.a(_arm_addsubdf3.o)
                              lpc2388/rom_func.o (__aeabi_dsub)
/usr/lib/gcc/arm-none-eabi/10.3.1/libgcc.a(_arm_muldivdf3.o)
                              lpc2388/rom_func.o (__aeabi_ddiv)
/usr/lib/gcc/arm-none-eabi/10.3.1/libgcc.a(_arm_cmpdf2.o)
                              /usr/lib//arm-none-eabi/lib/libm.a(lib_a-w_fmod.o) (__aeabi_dcmpeq)
/usr/lib/gcc/arm-none-eabi/10.3.1/libgcc.a(_arm_unorddf2.o)
                              lpc2388/rom_func.o (__aeabi_dcmpun)
/usr/lib/gcc/arm-none-eabi/10.3.1/libgcc.a(_arm_fixdfsi.o)
                              lpc2388/rom_func.o (__aeabi_d2iz)
/usr/lib/gcc/arm-none-eabi/10.3.1/libgcc.a(_arm_fixunsdfsi.o)
                              lpc2388/rom_func.o (__aeabi_d2uiz)
/usr/lib/gcc/arm-none-eabi/10.3.1/libgcc.a(_arm_truncdfsf2.o)
                              lpc2388/rom_func.o (__aeabi_d2f)
/usr/lib/gcc/arm-none-eabi/10.3.1/libgcc.a(_arm_addsubsf3.o)
                              lpc2388/rom_func.o (__aeabi_fsub)
/usr/lib/gcc/arm-none-eabi/10.3.1/libgcc.a(_arm_muldivsf3.o)
                              lpc2388/rom_func.o (__aeabi_fdiv)
/usr/lib/gcc/arm-none-eabi/10.3.1/libgcc.a(_arm_cmpsf2.o)
                              /usr/lib//arm-none-eabi/lib/libc.a(lib_a-strtod.o) (__aeabi_fcmple)
/usr/lib/gcc/arm-none-eabi/10.3.1/libgcc.a(_arm_unordsf2.o)
                              /usr/lib//arm-none-eabi/lib/libc.a(lib_a-strtod.o) (__aeabi_fcmpun)
/usr/lib/gcc/arm-none-eabi/10.3.1/libgcc.a(_arm_fixsfsi.o)
                              lpc2388/rom_func.o (__aeabi_f2iz)
/usr/lib/gcc/arm-none-eabi/10.3.1/libgcc.a(_arm_fixunssfsi.o)
                              lpc2388/rom_func.o (__aeabi_f2uiz)
/usr/lib/gcc/arm-none-eabi/10.3.1/libgcc.a(_aeabi_ldivmod.o)
                              lpc2388/rom_func.o (__aeabi_ldivmod)
/usr/lib/gcc/arm-none-eabi/10.3.1/libgcc.a(_aeabi_uldivmod.o)
                              lpc2388/rom_func.o (__aeabi_uldivmod)
/usr/lib/gcc/arm-none-eabi/10.3.1/libgcc.a(_fixsfdi.o)
                              lpc2388/rom_func.o (__aeabi_f2lz)
/usr/lib/gcc/arm-none-eabi/10.3.1/libgcc.a(_fixdfdi.o)
                              lpc2388/rom_func.o (__aeabi_d2lz)
/usr/lib/gcc/arm-none-eabi/10.3.1/libgcc.a(_fixunssfdi.o)
                              lpc2388/rom_func.o (__aeabi_f2ulz)
/usr/lib/gcc/arm-none-eabi/10.3.1/libgcc.a(_fixunsdfdi.o)
                              lpc2388/rom_func.o (__aeabi_d2ulz)
/usr/lib/gcc/arm-none-eabi/10.3.1/libgcc.a(_udivmoddi4.o)
                              /usr/lib/gcc/arm-none-eabi/10.3.1/libgcc.a(_aeabi_ldivmod.o) (__udivmoddi4)
/usr/lib/gcc/arm-none-eabi/10.3.1/libgcc.a(_clzdi2.o)
                              /usr/lib/gcc/arm-none-eabi/10.3.1/libgcc.a(_udivmoddi4.o) (__clzdi2)
/usr/lib/gcc/arm-none-eabi/10.3.1/libgcc.a(_clzsi2.o)
                              /usr/lib/gcc/arm-none-eabi/10.3.1/libgcc.a(_clzdi2.o) (__clzsi2)

Memory Configuration

Name             Origin             Length             Attributes
ROM              0x0000000000000000 0x0000000000080000 xr
RAM              0x0000000040000000 0x000000000000ffe0 xw
URAM             0x000000007fd00000 0x0000000000004000 w
ERAM             0x000000007fe00000 0x0000000000004000 w
BRAM             0x00000000e0084000 0x0000000000000800 xw
EXRAM0           0x0000000080000000 0x0000000000010000 xw
EXRAM1           0x0000000081000000 0x0000000000010000 xw
*default*        0x0000000000000000 0xffffffffffffffff

Linker script and memory map

LOAD startup.o
LOAD main.o
LOAD lpc2388/_init.o
LOAD lpc2388/ff.o
LOAD lpc2388/ffsdmm.o
LOAD lpc2388/lcdlib2388.o
LOAD lpc2388/malloc2388.o
LOAD lpc2388/rom_func.o
LOAD lpc2388/tinymalloc.o
LOAD lpc2388/uart.o
LOAD lpc2388/vic_lpc23xx.o
LOAD lpc2388/xprintf.o
LOAD /usr/lib//arm-none-eabi/lib/libm.a
LOAD /usr/lib//arm-none-eabi/lib/libc.a
LOAD /usr/lib//arm-none-eabi/lib/libnosys.a
LOAD /usr/lib/gcc/arm-none-eabi/10.3.1/libgcc.a

.text           0x0000000000000000    0x230c8
                0x0000000000000000                _sttext = .
 startup.o(.text)
 .text          0x0000000000000000      0x220 startup.o
                0x0000000000000020                _startup
                0x00000000000000b4                current_sp
                0x00000000000001fc                _crp
                0x0000000000000220                . = ALIGN (0x4)
                0x0000000000000220                _stext = .
 *(.text .text.*)
 .text          0x0000000000000220       0xb0 main.o
                0x0000000000000220                main
 .text          0x00000000000002d0      0x1ac lpc2388/_init.o
                0x00000000000002d0                LPC2388_Initialize
 .text          0x000000000000047c     0x4cc4 lpc2388/ff.o
                0x0000000000001f40                f_mount
                0x0000000000001fcc                f_open
                0x00000000000022e0                f_read
                0x0000000000002528                f_write
                0x00000000000028f8                f_sync
                0x00000000000029c8                f_close
                0x0000000000002a08                f_chdir
                0x0000000000002aa8                f_getcwd
                0x0000000000002cd4                f_lseek
                0x0000000000003024                f_opendir
                0x00000000000030e8                f_closedir
                0x0000000000003114                f_readdir
                0x000000000000318c                f_findnext
                0x0000000000003200                f_findfirst
                0x0000000000003238                f_stat
                0x00000000000032ac                f_getfree
                0x0000000000003414                f_truncate
                0x0000000000003530                f_unlink
                0x0000000000003668                f_mkdir
                0x000000000000383c                f_rename
                0x0000000000003a04                f_chmod
                0x0000000000003a9c                f_utime
                0x0000000000003b40                f_getlabel
                0x0000000000003c84                f_setlabel
                0x0000000000003f60                f_forward
                0x0000000000004120                f_mkfs
                0x0000000000004bac                f_gets
                0x0000000000004c2c                f_putc
                0x0000000000004c64                f_puts
                0x0000000000004cb4                f_printf
 .text          0x0000000000005140      0xbe0 lpc2388/ffsdmm.o
                0x00000000000057f0                disk_status
                0x0000000000005808                disk_initialize
                0x0000000000005a44                disk_read
                0x0000000000005af4                disk_write
                0x0000000000005be4                disk_ioctl
 .text          0x0000000000005d20      0x418 lpc2388/lcdlib2388.o
                0x0000000000005df8                LCD_Write
                0x0000000000005e48                LCD_Init
                0x0000000000005f20                LCD_PutChar
                0x0000000000005f38                LCD_Puts
                0x0000000000005fd4                LCD_PutHex
                0x0000000000006040                LCD_wait_msec
                0x0000000000006088                LCD_ShiftDisp
                0x00000000000060e0                LCD_ShiftCursor
 .text          0x0000000000006138      0x21c lpc2388/malloc2388.o
                0x0000000000006138                __malloc2388_init
                0x0000000000006220                malloc2388
                0x00000000000062ac                free2388
 *fill*         0x0000000000006354        0x4 
 .text          0x0000000000006358     0x1a60 lpc2388/rom_func.o
                0x0000000000006358                to_be_deleted_nop_func
                0x00000000000063b8                to_be_deleted_str_func
                0x00000000000065c0                to_be_deleted_arm_embed_std_library_function
                0x00000000000073e0                to_be_deleted_arm_embed_math_library_function
                0x0000000000007d4c                to_be_deleted_misc_func
                0x0000000000007d98                to_be_deleted_vsprintf
 .text          0x0000000000007db8      0x434 lpc2388/tinymalloc.o
                0x0000000000007db8                _s_tiny_malloc_init_
                0x0000000000007e98                _s_tiny_malloc_
                0x000000000000811c                _s_tiny_free_
 .text          0x00000000000081ec       0x88 lpc2388/uart.o
                0x00000000000081ec                uart0_init
                0x00000000000081f0                uart0_getc
                0x0000000000008214                uart0_putc
                0x0000000000008234                uart0_puts
                0x0000000000008260                uart0_dataReady
 .text          0x0000000000008274      0x154 lpc2388/vic_lpc23xx.o
                0x0000000000008274                VIC_Init
                0x00000000000082b0                Enable_IRQ
                0x00000000000082c8                Disable_IRQ
                0x00000000000082e0                Reg_IRQ
                0x0000000000008334                InitTimer0
                0x0000000000008364                _Demo_Timer0Handler
 .text          0x00000000000083c8      0x8bc lpc2388/xprintf.o
                0x00000000000083c8                xputc
                0x0000000000008430                xputs
                0x0000000000008844                xfputs
                0x0000000000008888                xprintf
                0x00000000000088b4                xsprintf
                0x00000000000088fc                xfprintf
                0x000000000000893c                put_dump
                0x0000000000008a30                xgets
                0x0000000000008b00                xfgets
                0x0000000000008b30                xatoi
 *fill*         0x0000000000008c84        0x4 
 .text          0x0000000000008c88      0x470 /usr/lib//arm-none-eabi/lib/libm.a(lib_a-s_atan.o)
                0x0000000000008c88                atan
 .text          0x00000000000090f8      0x23c /usr/lib//arm-none-eabi/lib/libm.a(lib_a-s_cbrt.o)
                0x00000000000090f8                cbrt
 *fill*         0x0000000000009334        0x4 
 .text          0x0000000000009338      0x184 /usr/lib//arm-none-eabi/lib/libm.a(lib_a-s_ceil.o)
                0x0000000000009338                ceil
 .text          0x00000000000094bc      0x11c /usr/lib//arm-none-eabi/lib/libm.a(lib_a-s_cos.o)
                0x00000000000094bc                cos
 .text          0x00000000000095d8     0x13d0 /usr/lib//arm-none-eabi/lib/libm.a(lib_a-s_erf.o)
                0x00000000000095d8                erf
                0x0000000000009fb8                erfc
 .text          0x000000000000a9a8        0x8 /usr/lib//arm-none-eabi/lib/libm.a(lib_a-s_fabs.o)
                0x000000000000a9a8                fabs
 .text          0x000000000000a9b0      0x18c /usr/lib//arm-none-eabi/lib/libm.a(lib_a-s_floor.o)
                0x000000000000a9b0                floor
 .text          0x000000000000ab3c      0x11c /usr/lib//arm-none-eabi/lib/libm.a(lib_a-s_modf.o)
                0x000000000000ab3c                modf
 .text          0x000000000000ac58       0xec /usr/lib//arm-none-eabi/lib/libm.a(lib_a-s_round.o)
                0x000000000000ac58                round
 .text          0x000000000000ad44      0x128 /usr/lib//arm-none-eabi/lib/libm.a(lib_a-s_sin.o)
                0x000000000000ad44                sin
 .text          0x000000000000ae6c       0xa0 /usr/lib//arm-none-eabi/lib/libm.a(lib_a-s_tan.o)
                0x000000000000ae6c                tan
 .text          0x000000000000af0c      0x198 /usr/lib//arm-none-eabi/lib/libm.a(lib_a-s_tanh.o)
                0x000000000000af0c                tanh
 .text          0x000000000000b0a4       0xac /usr/lib//arm-none-eabi/lib/libm.a(lib_a-s_trunc.o)
                0x000000000000b0a4                trunc
 .text          0x000000000000b150       0xbc /usr/lib//arm-none-eabi/lib/libm.a(lib_a-w_acos.o)
                0x000000000000b150                acos
 .text          0x000000000000b20c       0xbc /usr/lib//arm-none-eabi/lib/libm.a(lib_a-w_asin.o)
                0x000000000000b20c                asin
 .text          0x000000000000b2c8       0x10 /usr/lib//arm-none-eabi/lib/libm.a(lib_a-w_atan2.o)
                0x000000000000b2c8                atan2
 .text          0x000000000000b2d8       0xb8 /usr/lib//arm-none-eabi/lib/libm.a(lib_a-w_cosh.o)
                0x000000000000b2d8                cosh
 .text          0x000000000000b390       0xd0 /usr/lib//arm-none-eabi/lib/libm.a(lib_a-w_exp.o)
                0x000000000000b390                exp
 .text          0x000000000000b460       0xcc /usr/lib//arm-none-eabi/lib/libm.a(lib_a-w_fmod.o)
                0x000000000000b460                fmod
 .text          0x000000000000b52c       0x94 /usr/lib//arm-none-eabi/lib/libm.a(lib_a-w_hypot.o)
                0x000000000000b52c                hypot
 .text          0x000000000000b5c0       0xe8 /usr/lib//arm-none-eabi/lib/libm.a(lib_a-w_log.o)
                0x000000000000b5c0                log
 .text          0x000000000000b6a8       0xe8 /usr/lib//arm-none-eabi/lib/libm.a(lib_a-w_log10.o)
                0x000000000000b6a8                log10
 .text          0x000000000000b790      0x288 /usr/lib//arm-none-eabi/lib/libm.a(lib_a-w_pow.o)
                0x000000000000b790                pow
 .text          0x000000000000ba18       0xa8 /usr/lib//arm-none-eabi/lib/libm.a(lib_a-w_sinh.o)
                0x000000000000ba18                sinh
 .text          0x000000000000bac0       0xb8 /usr/lib//arm-none-eabi/lib/libm.a(lib_a-w_sqrt.o)
                0x000000000000bac0                sqrt
 .text          0x000000000000bb78      0x664 /usr/lib//arm-none-eabi/lib/libm.a(lib_a-e_acos.o)
                0x000000000000bb78                __ieee754_acos
 *fill*         0x000000000000c1dc        0x4 
 .text          0x000000000000c1e0      0x60c /usr/lib//arm-none-eabi/lib/libm.a(lib_a-e_asin.o)
                0x000000000000c1e0                __ieee754_asin
 *fill*         0x000000000000c7ec        0x4 
 .text          0x000000000000c7f0      0x248 /usr/lib//arm-none-eabi/lib/libm.a(lib_a-e_atan2.o)
                0x000000000000c7f0                __ieee754_atan2
 .text          0x000000000000ca38      0x224 /usr/lib//arm-none-eabi/lib/libm.a(lib_a-e_cosh.o)
                0x000000000000ca38                __ieee754_cosh
 *fill*         0x000000000000cc5c        0x4 
 .text          0x000000000000cc60      0x4fc /usr/lib//arm-none-eabi/lib/libm.a(lib_a-e_exp.o)
                0x000000000000cc60                __ieee754_exp
 .text          0x000000000000d15c      0x3c8 /usr/lib//arm-none-eabi/lib/libm.a(lib_a-e_fmod.o)
                0x000000000000d15c                __ieee754_fmod
 .text          0x000000000000d524      0x3b4 /usr/lib//arm-none-eabi/lib/libm.a(lib_a-e_hypot.o)
                0x000000000000d524                __ieee754_hypot
 .text          0x000000000000d8d8      0x608 /usr/lib//arm-none-eabi/lib/libm.a(lib_a-e_log.o)
                0x000000000000d8d8                __ieee754_log
 .text          0x000000000000dee0      0x1a4 /usr/lib//arm-none-eabi/lib/libm.a(lib_a-e_log10.o)
                0x000000000000dee0                __ieee754_log10
 *fill*         0x000000000000e084        0x4 
 .text          0x000000000000e088     0x102c /usr/lib//arm-none-eabi/lib/libm.a(lib_a-e_pow.o)
                0x000000000000e088                __ieee754_pow
 *fill*         0x000000000000f0b4        0x4 
 .text          0x000000000000f0b8      0x67c /usr/lib//arm-none-eabi/lib/libm.a(lib_a-e_rem_pio2.o)
                0x000000000000f0b8                __ieee754_rem_pio2
 *fill*         0x000000000000f734        0x4 
 .text          0x000000000000f738      0x27c /usr/lib//arm-none-eabi/lib/libm.a(lib_a-e_sinh.o)
                0x000000000000f738                __ieee754_sinh
 .text          0x000000000000f9b4      0x258 /usr/lib//arm-none-eabi/lib/libm.a(lib_a-e_sqrt.o)
                0x000000000000f9b4                __ieee754_sqrt
 *fill*         0x000000000000fc0c        0x4 
 .text          0x000000000000fc10      0x360 /usr/lib//arm-none-eabi/lib/libm.a(lib_a-k_cos.o)
                0x000000000000fc10                __kernel_cos
 .text          0x000000000000ff70      0xc58 /usr/lib//arm-none-eabi/lib/libm.a(lib_a-k_rem_pio2.o)
                0x000000000000ff70                __kernel_rem_pio2
 .text          0x0000000000010bc8      0x224 /usr/lib//arm-none-eabi/lib/libm.a(lib_a-k_sin.o)
                0x0000000000010bc8                __kernel_sin
 *fill*         0x0000000000010dec        0x4 
 .text          0x0000000000010df0      0x56c /usr/lib//arm-none-eabi/lib/libm.a(lib_a-k_tan.o)
                0x0000000000010df0                __kernel_tan
 *fill*         0x000000000001135c        0x4 
 .text          0x0000000000011360      0x6cc /usr/lib//arm-none-eabi/lib/libm.a(lib_a-s_expm1.o)
                0x0000000000011360                expm1
 .text          0x0000000000011a2c       0x10 /usr/lib//arm-none-eabi/lib/libm.a(lib_a-s_finite.o)
                0x0000000000011a2c                finite
 .text          0x0000000000011a3c        0x0 /usr/lib//arm-none-eabi/lib/libm.a(lib_a-s_lib_ver.o)
 .text          0x0000000000011a3c       0x10 /usr/lib//arm-none-eabi/lib/libm.a(lib_a-s_nan.o)
                0x0000000000011a3c                nan
 .text          0x0000000000011a4c      0x1b0 /usr/lib//arm-none-eabi/lib/libm.a(lib_a-s_rint.o)
                0x0000000000011a4c                rint
 *fill*         0x0000000000011bfc        0x4 
 .text          0x0000000000011c00      0x188 /usr/lib//arm-none-eabi/lib/libm.a(lib_a-s_scalbn.o)
                0x0000000000011c00                scalbn
 .text          0x0000000000011d88      0x200 /usr/lib//arm-none-eabi/lib/libm.a(lib_a-math_err.o)
                0x0000000000011e00                __math_uflow
                0x0000000000011e0c                __math_may_uflow
                0x0000000000011e1c                __math_oflow
                0x0000000000011e28                __math_divzero
                0x0000000000011e6c                __math_invalid
                0x0000000000011ed8                __math_check_uflow
                0x0000000000011f1c                __math_check_oflow
 .text          0x0000000000011f88       0x14 /usr/lib//arm-none-eabi/lib/libc.a(lib_a-atof.o)
                0x0000000000011f88                atof
 .text          0x0000000000011f9c       0x30 /usr/lib//arm-none-eabi/lib/libc.a(lib_a-atoi.o)
                0x0000000000011f9c                atoi
                0x0000000000011fb4                _atoi_r
 .text          0x0000000000011fcc       0x30 /usr/lib//arm-none-eabi/lib/libc.a(lib_a-atol.o)
                0x0000000000011fcc                atol
                0x0000000000011fe4                _atol_r
 .text          0x0000000000011ffc       0x80 /usr/lib//arm-none-eabi/lib/libc.a(lib_a-bsearch.o)
                0x0000000000011ffc                bsearch
 .text          0x000000000001207c        0x0 /usr/lib//arm-none-eabi/lib/libc.a(lib_a-ctype_.o)
 .text          0x000000000001207c       0x10 /usr/lib//arm-none-eabi/lib/libc.a(lib_a-errno.o)
                0x000000000001207c                __errno
 .text          0x000000000001208c        0x0 /usr/lib//arm-none-eabi/lib/libc.a(lib_a-impure.o)
 .text          0x000000000001208c       0x40 /usr/lib//arm-none-eabi/lib/libc.a(lib_a-malloc.o)
                0x000000000001208c                malloc
                0x00000000000120ac                free
 .text          0x00000000000120cc      0x7f0 /usr/lib//arm-none-eabi/lib/libc.a(lib_a-mallocr.o)
                0x00000000000120cc                _malloc_r
 .text          0x00000000000128bc       0xf0 /usr/lib//arm-none-eabi/lib/libc.a(lib_a-memchr-stub.o)
                0x00000000000128bc                memchr
 .text          0x00000000000129ac       0xac /usr/lib//arm-none-eabi/lib/libc.a(lib_a-memcmp.o)
                0x00000000000129ac                memcmp
 .text          0x0000000000012a58      0x120 /usr/lib//arm-none-eabi/lib/libc.a(lib_a-memcpy-stub.o)
                0x0000000000012a58                memcpy
 .text          0x0000000000012b78      0x158 /usr/lib//arm-none-eabi/lib/libc.a(lib_a-memmove.o)
                0x0000000000012b78                memmove
 .text          0x0000000000012cd0      0x11c /usr/lib//arm-none-eabi/lib/libc.a(lib_a-memset.o)
                0x0000000000012cd0                memset
 .text          0x0000000000012dec        0x8 /usr/lib//arm-none-eabi/lib/libc.a(lib_a-mlock.o)
                0x0000000000012dec                __malloc_lock
                0x0000000000012df0                __malloc_unlock
 .text          0x0000000000012df4      0xa54 /usr/lib//arm-none-eabi/lib/libc.a(lib_a-qsort.o)
                0x0000000000012df4                qsort
 .text          0x0000000000013848       0x6c /usr/lib//arm-none-eabi/lib/libc.a(lib_a-rand.o)
                0x0000000000013848                srand
                0x0000000000013864                rand
 .text          0x00000000000138b4       0x44 /usr/lib//arm-none-eabi/lib/libc.a(lib_a-sbrkr.o)
                0x00000000000138b4                _sbrk_r
 .text          0x00000000000138f8       0xcc /usr/lib//arm-none-eabi/lib/libc.a(lib_a-sprintf.o)
                0x00000000000138f8                _sprintf_r
                0x0000000000013958                sprintf
 .text          0x00000000000139c4       0x74 /usr/lib//arm-none-eabi/lib/libc.a(lib_a-strcat.o)
                0x00000000000139c4                strcat
 .text          0x0000000000013a38      0x150 /usr/lib//arm-none-eabi/lib/libc.a(lib_a-strchr.o)
                0x0000000000013a38                strchr
 .text          0x0000000000013b88       0xf0 /usr/lib//arm-none-eabi/lib/libc.a(lib_a-strcpy.o)
                0x0000000000013b88                strcpy
 .text          0x0000000000013c78       0x68 /usr/lib//arm-none-eabi/lib/libc.a(lib_a-strcspn.o)
                0x0000000000013c78                strcspn
 .text          0x0000000000013ce0       0xf0 /usr/lib//arm-none-eabi/lib/libc.a(lib_a-strncat.o)
                0x0000000000013ce0                strncat
 .text          0x0000000000013dd0       0xcc /usr/lib//arm-none-eabi/lib/libc.a(lib_a-strncpy.o)
                0x0000000000013dd0                strncpy
 .text          0x0000000000013e9c       0x54 /usr/lib//arm-none-eabi/lib/libc.a(lib_a-strrchr.o)
                0x0000000000013e9c                strrchr
 .text          0x0000000000013ef0       0x64 /usr/lib//arm-none-eabi/lib/libc.a(lib_a-strspn.o)
                0x0000000000013ef0                strspn
 .text          0x0000000000013f54      0x690 /usr/lib//arm-none-eabi/lib/libc.a(lib_a-strstr.o)
                0x0000000000014374                strstr
 *fill*         0x00000000000145e4        0x4 
 .text          0x00000000000145e8     0x1870 /usr/lib//arm-none-eabi/lib/libc.a(lib_a-strtod.o)
                0x00000000000145e8                _strtod_l
                0x0000000000015bf4                _strtod_r
                0x0000000000015c00                strtod_l
                0x0000000000015c2c                strtod
                0x0000000000015c50                strtof_l
                0x0000000000015d54                strtof
 .text          0x0000000000015e58       0x24 /usr/lib//arm-none-eabi/lib/libc.a(lib_a-strtok.o)
                0x0000000000015e58                strtok
 .text          0x0000000000015e7c       0xbc /usr/lib//arm-none-eabi/lib/libc.a(lib_a-strtok_r.o)
                0x0000000000015e7c                __strtok_r
                0x0000000000015f30                strtok_r
 .text          0x0000000000015f38      0x298 /usr/lib//arm-none-eabi/lib/libc.a(lib_a-strtol.o)
                0x00000000000160ec                _strtol_r
                0x0000000000016128                strtol_l
                0x000000000001617c                strtol
 .text          0x00000000000161d0     0x1efc /usr/lib//arm-none-eabi/lib/libc.a(lib_a-svfprintf.o)
                0x00000000000161d0                _svfprintf_r
 .text          0x00000000000180cc       0xb0 /usr/lib//arm-none-eabi/lib/libc.a(lib_a-vsprintf.o)
                0x00000000000180cc                vsprintf
                0x0000000000018130                _vsprintf_r
 *fill*         0x000000000001817c        0x4 
 .text          0x0000000000018180     0x18ec /usr/lib//arm-none-eabi/lib/libc.a(lib_a-dtoa.o)
                0x0000000000018340                _dtoa_r
 .text          0x0000000000019a6c      0x3ec /usr/lib//arm-none-eabi/lib/libc.a(lib_a-freer.o)
                0x0000000000019a6c                _malloc_trim_r
                0x0000000000019b6c                _free_r
 .text          0x0000000000019e58      0x9ec /usr/lib//arm-none-eabi/lib/libc.a(lib_a-gdtoa-gethex.o)
                0x0000000000019f4c                __gethex
 .text          0x000000000001a844      0x2fc /usr/lib//arm-none-eabi/lib/libc.a(lib_a-gdtoa-hexnan.o)
                0x000000000001a844                __match
                0x000000000001a898                __hexnan
 .text          0x000000000001ab40        0x8 /usr/lib//arm-none-eabi/lib/libc.a(lib_a-lnumeric.o)
                0x000000000001ab40                __numeric_load_locale
 .text          0x000000000001ab48       0xe0 /usr/lib//arm-none-eabi/lib/libc.a(lib_a-locale.o)
                0x000000000001ab48                _setlocale_r
                0x000000000001abb0                __locale_mb_cur_max
                0x000000000001abc0                setlocale
 .text          0x000000000001ac28       0x20 /usr/lib//arm-none-eabi/lib/libc.a(lib_a-localeconv.o)
                0x000000000001ac28                __localeconv_l
                0x000000000001ac30                _localeconv_r
                0x000000000001ac3c                localeconv
 .text          0x000000000001ac48       0x60 /usr/lib//arm-none-eabi/lib/libc.a(lib_a-mbtowc_r.o)
                0x000000000001ac48                _mbtowc_r
                0x000000000001ac64                __ascii_mbtowc
 .text          0x000000000001aca8      0xf90 /usr/lib//arm-none-eabi/lib/libc.a(lib_a-mprec.o)
                0x000000000001aca8                _Balloc
                0x000000000001ad34                _Bfree
                0x000000000001ad50                __multadd
                0x000000000001ae50                __s2b
                0x000000000001af64                __hi0bits
                0x000000000001afbc                __lo0bits
                0x000000000001b058                __i2b
                0x000000000001b100                __multiply
                0x000000000001b314                __pow5mult
                0x000000000001b438                __lshift
                0x000000000001b578                __mcmp
                0x000000000001b5d8                __mdiff
                0x000000000001b7cc                __ulp
                0x000000000001b830                __b2d
                0x000000000001b920                __d2b
                0x000000000001ba64                __ratio
                0x000000000001bae8                _mprec_log10
                0x000000000001bb48                __copybits
                0x000000000001bbd4                __any_on
 .text          0x000000000001bc38      0x178 /usr/lib//arm-none-eabi/lib/libc.a(lib_a-reent.o)
                0x000000000001bc38                cleanup_glue
                0x000000000001bcac                _reclaim_reent
 .text          0x000000000001bdb0        0xc /usr/lib//arm-none-eabi/lib/libc.a(lib_a-sf_nan.o)
                0x000000000001bdb0                nanf
 .text          0x000000000001bdbc      0x224 /usr/lib//arm-none-eabi/lib/libc.a(lib_a-strcmp.o)
                0x000000000001bdbc                strcmp
 .text          0x000000000001bfe0       0x60 /usr/lib//arm-none-eabi/lib/libc.a(lib_a-strlen-stub.o)
                0x000000000001bfe0                strlen
 .text          0x000000000001c040       0xe4 /usr/lib//arm-none-eabi/lib/libc.a(lib_a-strncmp.o)
                0x000000000001c040                strncmp
 .text          0x000000000001c124       0x48 /usr/lib//arm-none-eabi/lib/libc.a(lib_a-strnlen.o)
                0x000000000001c124                strnlen
 .text          0x000000000001c16c     0x1158 /usr/lib//arm-none-eabi/lib/libc.a(lib_a-svfiprintf.o)
                0x000000000001c16c                __ssprint_r
                0x000000000001c314                _svfiprintf_r
 .text          0x000000000001d2c4       0x4c /usr/lib//arm-none-eabi/lib/libc.a(lib_a-wctomb_r.o)
                0x000000000001d2c4                _wctomb_r
                0x000000000001d2e0                __ascii_wctomb
 .text          0x000000000001d310       0x6c /usr/lib//arm-none-eabi/lib/libc.a(lib_a-assert.o)
                0x000000000001d310                __assert_func
                0x000000000001d36c                __assert
 .text          0x000000000001d37c       0x9c /usr/lib//arm-none-eabi/lib/libc.a(lib_a-callocr.o)
                0x000000000001d37c                _calloc_r
 .text          0x000000000001d418       0x68 /usr/lib//arm-none-eabi/lib/libc.a(lib_a-fiprintf.o)
                0x000000000001d418                _fiprintf_r
                0x000000000001d444                fiprintf
 .text          0x000000000001d480      0x594 /usr/lib//arm-none-eabi/lib/libc.a(lib_a-reallocr.o)
                0x000000000001d480                _realloc_r
 .text          0x000000000001da14     0x12ec /usr/lib//arm-none-eabi/lib/libc.a(lib_a-vfiprintf.o)
                0x000000000001dac0                __sprint_r
                0x000000000001dad8                _vfiprintf_r
                0x000000000001ec24                vfiprintf
 .text          0x000000000001ed00      0x16c /usr/lib//arm-none-eabi/lib/libc.a(lib_a-wsetup.o)
                0x000000000001ed00                __swsetup_r
 .text          0x000000000001ee6c       0x14 /usr/lib//arm-none-eabi/lib/libc.a(lib_a-abort.o)
                0x000000000001ee6c                abort
 .text          0x000000000001ee80      0x324 /usr/lib//arm-none-eabi/lib/libc.a(lib_a-fflush.o)
                0x000000000001ee80                __sflush_r
                0x000000000001f0c4                _fflush_r
                0x000000000001f114                fflush
 .text          0x000000000001f1a4      0x360 /usr/lib//arm-none-eabi/lib/libc.a(lib_a-findfp.o)
                0x000000000001f1ac                _cleanup_r
                0x000000000001f314                __sfmoreglue
                0x000000000001f364                __sfp
                0x000000000001f478                _cleanup
                0x000000000001f49c                __sinit
                0x000000000001f4ac                __sfp_lock_acquire
                0x000000000001f4b0                __sfp_lock_release
                0x000000000001f4b4                __sinit_lock_acquire
                0x000000000001f4b8                __sinit_lock_release
                0x000000000001f4bc                __fp_lock_all
                0x000000000001f4e0                __fp_unlock_all
 .text          0x000000000001f504      0x19c /usr/lib//arm-none-eabi/lib/libc.a(lib_a-fputwc.o)
                0x000000000001f504                __fputwc
                0x000000000001f618                _fputwc_r
                0x000000000001f638                fputwc
 .text          0x000000000001f6a0      0x4c4 /usr/lib//arm-none-eabi/lib/libc.a(lib_a-fvwrite.o)
                0x000000000001f6a0                __sfvwrite_r
 .text          0x000000000001fb64       0xe8 /usr/lib//arm-none-eabi/lib/libc.a(lib_a-fwalk.o)
                0x000000000001fb64                _fwalk
                0x000000000001fbd4                _fwalk_reent
 .text          0x000000000001fc4c      0x1e4 /usr/lib//arm-none-eabi/lib/libc.a(lib_a-makebuf.o)
                0x000000000001fc4c                __smakebuf_r
                0x000000000001fd90                __swhatbuf_r
 .text          0x000000000001fe30      0x458 /usr/lib//arm-none-eabi/lib/libc.a(lib_a-signal.o)
                0x000000000001fe30                _init_signal_r
                0x000000000001fe84                _signal_r
                0x000000000001ff00                _raise_r
                0x000000000001ff98                __sigtramp_r
                0x000000000002004c                raise
                0x00000000000200e8                signal
                0x0000000000020170                _init_signal
                0x00000000000201d0                __sigtramp
 .text          0x0000000000020288       0x50 /usr/lib//arm-none-eabi/lib/libc.a(lib_a-signalr.o)
                0x0000000000020288                _kill_r
                0x00000000000202c8                _getpid_r
 .text          0x00000000000202d8       0xdc /usr/lib//arm-none-eabi/lib/libc.a(lib_a-stdio.o)
                0x00000000000202d8                __sread
                0x000000000002030c                __seofread
                0x0000000000020314                __swrite
                0x0000000000020370                __sseek
                0x00000000000203a0                __sclose
 .text          0x00000000000203b4      0x150 /usr/lib//arm-none-eabi/lib/libc.a(lib_a-wbuf.o)
                0x00000000000203b4                __swbuf_r
                0x00000000000204e8                __swbuf
 .text          0x0000000000020504       0xe0 /usr/lib//arm-none-eabi/lib/libc.a(lib_a-wcrtomb.o)
                0x0000000000020504                _wcrtomb_r
                0x000000000002055c                wcrtomb
 .text          0x00000000000205e4       0x48 /usr/lib//arm-none-eabi/lib/libc.a(lib_a-writer.o)
                0x00000000000205e4                _write_r
 .text          0x000000000002062c       0x3c /usr/lib//arm-none-eabi/lib/libc.a(lib_a-closer.o)
                0x000000000002062c                _close_r
 .text          0x0000000000020668      0x17c /usr/lib//arm-none-eabi/lib/libc.a(lib_a-fclose.o)
                0x0000000000020718                _fclose_r
                0x0000000000020778                fclose
 .text          0x00000000000207e4       0x40 /usr/lib//arm-none-eabi/lib/libc.a(lib_a-fstatr.o)
                0x00000000000207e4                _fstat_r
 .text          0x0000000000020824       0x3c /usr/lib//arm-none-eabi/lib/libc.a(lib_a-isattyr.o)
                0x0000000000020824                _isatty_r
 .text          0x0000000000020860       0x48 /usr/lib//arm-none-eabi/lib/libc.a(lib_a-lseekr.o)
                0x0000000000020860                _lseek_r
 .text          0x00000000000208a8       0x48 /usr/lib//arm-none-eabi/lib/libc.a(lib_a-readr.o)
                0x00000000000208a8                _read_r
 .text          0x00000000000208f0       0x18 /usr/lib//arm-none-eabi/lib/libnosys.a(close.o)
                0x00000000000208f0                _close
 .text          0x0000000000020908       0x18 /usr/lib//arm-none-eabi/lib/libnosys.a(fstat.o)
                0x0000000000020908                _fstat
 .text          0x0000000000020920       0x18 /usr/lib//arm-none-eabi/lib/libnosys.a(getpid.o)
                0x0000000000020920                _getpid
 .text          0x0000000000020938       0x18 /usr/lib//arm-none-eabi/lib/libnosys.a(isatty.o)
                0x0000000000020938                _isatty
 .text          0x0000000000020950       0x18 /usr/lib//arm-none-eabi/lib/libnosys.a(kill.o)
                0x0000000000020950                _kill
 .text          0x0000000000020968       0x18 /usr/lib//arm-none-eabi/lib/libnosys.a(lseek.o)
                0x0000000000020968                _lseek
 .text          0x0000000000020980       0x18 /usr/lib//arm-none-eabi/lib/libnosys.a(read.o)
                0x0000000000020980                _read
 .text          0x0000000000020998       0x2c /usr/lib//arm-none-eabi/lib/libnosys.a(sbrk.o)
                0x0000000000020998                _sbrk
 .text          0x00000000000209c4       0x18 /usr/lib//arm-none-eabi/lib/libnosys.a(write.o)
                0x00000000000209c4                _write
 .text          0x00000000000209dc        0x4 /usr/lib//arm-none-eabi/lib/libnosys.a(_exit.o)
                0x00000000000209dc                _exit
 .text          0x00000000000209e0      0x290 /usr/lib/gcc/arm-none-eabi/10.3.1/libgcc.a(_arm_muldf3.o)
 .text          0x0000000000020c70      0x198 /usr/lib/gcc/arm-none-eabi/10.3.1/libgcc.a(_arm_mulsf3.o)
 .text          0x0000000000020e08      0x114 /usr/lib/gcc/arm-none-eabi/10.3.1/libgcc.a(_udivsi3.o)
                0x0000000000020e08                __udivsi3
                0x0000000000020e08                __aeabi_uidiv
                0x0000000000020efc                __aeabi_uidivmod
 .text          0x0000000000020f1c      0x148 /usr/lib/gcc/arm-none-eabi/10.3.1/libgcc.a(_divsi3.o)
                0x0000000000020f1c                __aeabi_idiv
                0x0000000000020f1c                __divsi3
                0x0000000000021044                __aeabi_idivmod
 .text          0x0000000000021064        0x4 /usr/lib/gcc/arm-none-eabi/10.3.1/libgcc.a(_dvmd_tls.o)
                0x0000000000021064                __aeabi_ldiv0
                0x0000000000021064                __aeabi_idiv0
 .text          0x0000000000021068      0x424 /usr/lib/gcc/arm-none-eabi/10.3.1/libgcc.a(_arm_addsubdf3.o)
                0x0000000000021068                __aeabi_drsub
                0x0000000000021070                __aeabi_dsub
                0x0000000000021070                __subdf3
                0x0000000000021074                __adddf3
                0x0000000000021074                __aeabi_dadd
                0x0000000000021384                __aeabi_ui2d
                0x0000000000021384                __floatunsidf
                0x00000000000213a8                __floatsidf
                0x00000000000213a8                __aeabi_i2d
                0x00000000000213d0                __extendsfdf2
                0x00000000000213d0                __aeabi_f2d
                0x0000000000021418                __aeabi_ul2d
                0x0000000000021418                __floatundidf
                0x000000000002142c                __floatdidf
                0x000000000002142c                __aeabi_l2d
 .text          0x000000000002148c      0x49c /usr/lib/gcc/arm-none-eabi/10.3.1/libgcc.a(_arm_muldivdf3.o)
                0x000000000002148c                __aeabi_dmul
                0x000000000002148c                __muldf3
                0x000000000002171c                __aeabi_ddiv
                0x000000000002171c                __divdf3
 .text          0x0000000000021928      0x144 /usr/lib/gcc/arm-none-eabi/10.3.1/libgcc.a(_arm_cmpdf2.o)
                0x0000000000021928                __gtdf2
                0x0000000000021928                __gedf2
                0x0000000000021930                __ltdf2
                0x0000000000021930                __ledf2
                0x0000000000021938                __cmpdf2
                0x0000000000021938                __eqdf2
                0x0000000000021938                __nedf2
                0x00000000000219c0                __aeabi_cdrcmple
                0x00000000000219dc                __aeabi_cdcmple
                0x00000000000219dc                __aeabi_cdcmpeq
                0x00000000000219f4                __aeabi_dcmpeq
                0x0000000000021a0c                __aeabi_dcmplt
                0x0000000000021a24                __aeabi_dcmple
                0x0000000000021a3c                __aeabi_dcmpge
                0x0000000000021a54                __aeabi_dcmpgt
 .text          0x0000000000021a6c       0x38 /usr/lib/gcc/arm-none-eabi/10.3.1/libgcc.a(_arm_unorddf2.o)
                0x0000000000021a6c                __aeabi_dcmpun
                0x0000000000021a6c                __unorddf2
 .text          0x0000000000021aa4       0x5c /usr/lib/gcc/arm-none-eabi/10.3.1/libgcc.a(_arm_fixdfsi.o)
                0x0000000000021aa4                __fixdfsi
                0x0000000000021aa4                __aeabi_d2iz
 .text          0x0000000000021b00       0x54 /usr/lib/gcc/arm-none-eabi/10.3.1/libgcc.a(_arm_fixunsdfsi.o)
                0x0000000000021b00                __fixunsdfsi
                0x0000000000021b00                __aeabi_d2uiz
 .text          0x0000000000021b54       0xa0 /usr/lib/gcc/arm-none-eabi/10.3.1/libgcc.a(_arm_truncdfsf2.o)
                0x0000000000021b54                __aeabi_d2f
                0x0000000000021b54                __truncdfsf2
 .text          0x0000000000021bf4      0x2ac /usr/lib/gcc/arm-none-eabi/10.3.1/libgcc.a(_arm_addsubsf3.o)
                0x0000000000021bf4                __aeabi_frsub
                0x0000000000021bfc                __subsf3
                0x0000000000021bfc                __aeabi_fsub
                0x0000000000021c00                __aeabi_fadd
                0x0000000000021c00                __addsf3
                0x0000000000021dbc                __aeabi_ui2f
                0x0000000000021dbc                __floatunsisf
                0x0000000000021dc4                __aeabi_i2f
                0x0000000000021dc4                __floatsisf
                0x0000000000021de4                __floatundisf
                0x0000000000021de4                __aeabi_ul2f
                0x0000000000021df4                __floatdisf
                0x0000000000021df4                __aeabi_l2f
 .text          0x0000000000021ea0      0x2f8 /usr/lib/gcc/arm-none-eabi/10.3.1/libgcc.a(_arm_muldivsf3.o)
                0x0000000000021ea0                __mulsf3
                0x0000000000021ea0                __aeabi_fmul
                0x0000000000022038                __divsf3
                0x0000000000022038                __aeabi_fdiv
 .text          0x0000000000022198      0x114 /usr/lib/gcc/arm-none-eabi/10.3.1/libgcc.a(_arm_cmpsf2.o)
                0x0000000000022198                __gtsf2
                0x0000000000022198                __gesf2
                0x00000000000221a0                __lesf2
                0x00000000000221a0                __ltsf2
                0x00000000000221a8                __nesf2
                0x00000000000221a8                __eqsf2
                0x00000000000221a8                __cmpsf2
                0x000000000002220c                __aeabi_cfrcmple
                0x000000000002221c                __aeabi_cfcmple
                0x000000000002221c                __aeabi_cfcmpeq
                0x0000000000022234                __aeabi_fcmpeq
                0x000000000002224c                __aeabi_fcmplt
                0x0000000000022264                __aeabi_fcmple
                0x000000000002227c                __aeabi_fcmpge
                0x0000000000022294                __aeabi_fcmpgt
 .text          0x00000000000222ac       0x38 /usr/lib/gcc/arm-none-eabi/10.3.1/libgcc.a(_arm_unordsf2.o)
                0x00000000000222ac                __aeabi_fcmpun
                0x00000000000222ac                __unordsf2
 .text          0x00000000000222e4       0x5c /usr/lib/gcc/arm-none-eabi/10.3.1/libgcc.a(_arm_fixsfsi.o)
                0x00000000000222e4                __fixsfsi
                0x00000000000222e4                __aeabi_f2iz
 .text          0x0000000000022340       0x54 /usr/lib/gcc/arm-none-eabi/10.3.1/libgcc.a(_arm_fixunssfsi.o)
                0x0000000000022340                __aeabi_f2uiz
                0x0000000000022340                __fixunssfsi
 .text          0x0000000000022394       0xd4 /usr/lib/gcc/arm-none-eabi/10.3.1/libgcc.a(_aeabi_ldivmod.o)
                0x0000000000022394                __aeabi_ldivmod
 .text          0x0000000000022468       0x3c /usr/lib/gcc/arm-none-eabi/10.3.1/libgcc.a(_aeabi_uldivmod.o)
                0x0000000000022468                __aeabi_uldivmod
 .text          0x00000000000224a4       0x40 /usr/lib/gcc/arm-none-eabi/10.3.1/libgcc.a(_fixsfdi.o)
                0x00000000000224a4                __aeabi_f2lz
                0x00000000000224a4                __fixsfdi
 .text          0x00000000000224e4       0x4c /usr/lib/gcc/arm-none-eabi/10.3.1/libgcc.a(_fixdfdi.o)
                0x00000000000224e4                __aeabi_d2lz
                0x00000000000224e4                __fixdfdi
 .text          0x0000000000022530       0x60 /usr/lib/gcc/arm-none-eabi/10.3.1/libgcc.a(_fixunssfdi.o)
                0x0000000000022530                __aeabi_f2ulz
                0x0000000000022530                __fixunssfdi
 .text          0x0000000000022590       0x5c /usr/lib/gcc/arm-none-eabi/10.3.1/libgcc.a(_fixunsdfdi.o)
                0x0000000000022590                __aeabi_d2ulz
                0x0000000000022590                __fixunsdfdi
 .text          0x00000000000225ec      0x128 /usr/lib/gcc/arm-none-eabi/10.3.1/libgcc.a(_udivmoddi4.o)
                0x00000000000225ec                __udivmoddi4
 .text          0x0000000000022714       0x28 /usr/lib/gcc/arm-none-eabi/10.3.1/libgcc.a(_clzdi2.o)
                0x0000000000022714                __clzdi2
 .text          0x000000000002273c       0x48 /usr/lib/gcc/arm-none-eabi/10.3.1/libgcc.a(_clzsi2.o)
                0x000000000002273c                __clzsi2
 *(.init)
 *(.fini)
 *(.gnu.linkonce.t.*)
 *(.glue_7)
 .glue_7        0x0000000000022784        0x0 linker stubs
 *(.glue_7t)
 .glue_7t       0x0000000000022784        0x0 linker stubs
 *(.vfp11_veneer)
 .vfp11_veneer  0x0000000000022784        0x0 linker stubs
 *(.janus_2cc_veneer)
 *(.v4_bx)
 .v4_bx         0x0000000000022784        0x0 linker stubs
 *(.gcc_except_table)
 *(.rodata .rodata.*)
 .rodata.str1.4
                0x0000000000022784       0x4c main.o
 .rodata.str1.4
                0x00000000000227d0       0x50 lpc2388/ff.o
 .rodata        0x0000000000022820       0x2e lpc2388/ff.o
 *fill*         0x000000000002284e        0x2 
 .rodata.str1.4
                0x0000000000022850       0x7c lpc2388/rom_func.o
 .rodata.str1.4
                0x00000000000228cc       0x1f lpc2388/xprintf.o
 *fill*         0x00000000000228eb        0x5 
 .rodata        0x00000000000228f0       0x40 /usr/lib//arm-none-eabi/lib/libm.a(lib_a-s_atan.o)
 .rodata.str1.4
                0x0000000000022930       0x1f /usr/lib//arm-none-eabi/lib/libm.a(lib_a-w_acos.o)
                                          0x1 (size before relaxing)
 .rodata.str1.4
                0x0000000000022930        0x1 /usr/lib//arm-none-eabi/lib/libm.a(lib_a-w_asin.o)
 .rodata.str1.4
                0x0000000000022930        0x1 /usr/lib//arm-none-eabi/lib/libm.a(lib_a-w_log.o)
 .rodata.str1.4
                0x0000000000022930        0x1 /usr/lib//arm-none-eabi/lib/libm.a(lib_a-w_log10.o)
 .rodata        0x0000000000022930       0x30 /usr/lib//arm-none-eabi/lib/libm.a(lib_a-e_atan2.o)
 .rodata        0x0000000000022960       0x30 /usr/lib//arm-none-eabi/lib/libm.a(lib_a-e_exp.o)
 .rodata        0x0000000000022990       0x10 /usr/lib//arm-none-eabi/lib/libm.a(lib_a-e_fmod.o)
 .rodata.str1.4
                0x00000000000229a0        0x1 /usr/lib//arm-none-eabi/lib/libm.a(lib_a-e_pow.o)
 .rodata        0x00000000000229a0      0x188 /usr/lib//arm-none-eabi/lib/libm.a(lib_a-e_rem_pio2.o)
 .rodata        0x0000000000022b28       0x50 /usr/lib//arm-none-eabi/lib/libm.a(lib_a-k_rem_pio2.o)
 .rodata        0x0000000000022b78       0x10 /usr/lib//arm-none-eabi/lib/libm.a(lib_a-s_rint.o)
 .rodata        0x0000000000022b88      0x101 /usr/lib//arm-none-eabi/lib/libc.a(lib_a-ctype_.o)
                0x0000000000022b88                _ctype_
 *fill*         0x0000000000022c89        0x3 
 .rodata        0x0000000000022c8c        0x4 /usr/lib//arm-none-eabi/lib/libc.a(lib_a-impure.o)
                0x0000000000022c8c                _global_impure_ptr
 .rodata.str1.4
                0x0000000000022c90        0xf /usr/lib//arm-none-eabi/lib/libc.a(lib_a-strtod.o)
                                         0x11 (size before relaxing)
 *fill*         0x0000000000022c9f        0x1 
 .rodata        0x0000000000022ca0       0x50 /usr/lib//arm-none-eabi/lib/libc.a(lib_a-strtod.o)
 .rodata.str1.4
                0x0000000000022cf0       0x42 /usr/lib//arm-none-eabi/lib/libc.a(lib_a-svfprintf.o)
 *fill*         0x0000000000022d32        0x2 
 .rodata        0x0000000000022d34       0x20 /usr/lib//arm-none-eabi/lib/libc.a(lib_a-svfprintf.o)
 .rodata.str1.4
                0x0000000000022d54       0x4d /usr/lib//arm-none-eabi/lib/libc.a(lib_a-dtoa.o)
                                         0x51 (size before relaxing)
 *fill*         0x0000000000022da1        0x3 
 .rodata.str1.4
                0x0000000000022da4       0x31 /usr/lib//arm-none-eabi/lib/libc.a(lib_a-gdtoa-gethex.o)
                                         0x45 (size before relaxing)
 *fill*         0x0000000000022dd5        0x3 
 .rodata        0x0000000000022dd8      0x100 /usr/lib//arm-none-eabi/lib/libc.a(lib_a-gdtoa-gethex.o)
                0x0000000000022dd8                __hexdig
 .rodata.str1.4
                0x0000000000022ed8        0x2 /usr/lib//arm-none-eabi/lib/libc.a(lib_a-lnumeric.o)
                                          0x5 (size before relaxing)
 *fill*         0x0000000000022eda        0x2 
 .rodata        0x0000000000022edc        0xc /usr/lib//arm-none-eabi/lib/libc.a(lib_a-lnumeric.o)
                0x0000000000022edc                _C_numeric_locale
 .rodata.str1.4
                0x0000000000022ee8        0xa /usr/lib//arm-none-eabi/lib/libc.a(lib_a-locale.o)
                                         0x12 (size before relaxing)
 *fill*         0x0000000000022ef2        0x2 
 .rodata.str1.4
                0x0000000000022ef4       0x2a /usr/lib//arm-none-eabi/lib/libc.a(lib_a-mprec.o)
                                         0x3e (size before relaxing)
 *fill*         0x0000000000022f1e        0x2 
 .rodata        0x0000000000022f20      0x128 /usr/lib//arm-none-eabi/lib/libc.a(lib_a-mprec.o)
                0x0000000000022f30                __mprec_tens
                0x0000000000022ff8                __mprec_tinytens
                0x0000000000023020                __mprec_bigtens
 .rodata.str1.4
                0x0000000000023048       0x2f /usr/lib//arm-none-eabi/lib/libc.a(lib_a-svfiprintf.o)
 .rodata        0x0000000000023048       0x20 /usr/lib//arm-none-eabi/lib/libc.a(lib_a-svfiprintf.o)
 .rodata.str1.4
                0x0000000000023068       0x3f /usr/lib//arm-none-eabi/lib/libc.a(lib_a-assert.o)
                                         0x43 (size before relaxing)
 .rodata.str1.4
                0x00000000000230a7       0x2f /usr/lib//arm-none-eabi/lib/libc.a(lib_a-vfiprintf.o)
 *fill*         0x00000000000230a7        0x1 
 .rodata        0x00000000000230a8       0x20 /usr/lib//arm-none-eabi/lib/libc.a(lib_a-vfiprintf.o)
 *(.ioview .ioview.*)
 *(.gnu.linkonce.r.*)
 *(.ARM.extab* .gnu.linkonce.armextab.*)
 .ARM.extab     0x00000000000230c8        0x0 /usr/lib/gcc/arm-none-eabi/10.3.1/libgcc.a(_udivmoddi4.o)
                0x00000000000230c8                . = ALIGN (0x4)

.iplt           0x00000000000230c8        0x0
 .iplt          0x00000000000230c8        0x0 startup.o
                0x00000000000230c8                . = ALIGN (0x4)

.ctors          0x00000000000230c8        0x0
                [!provide]                        PROVIDE (__ctors_start__ = .)
 *(SORT_BY_NAME(.ctors.*))
 *(.ctors)
                0x00000000000230c8                . = ALIGN (0x4)
                [!provide]                        PROVIDE (__ctors_end__ = .)
                0x00000000000230c8                . = ALIGN (0x4)

.dtors          0x00000000000230c8        0x0
                [!provide]                        PROVIDE (__dtors_start__ = .)
 *(SORT_BY_NAME(.dtors.*))
 *(.dtors)
                0x00000000000230c8                . = ALIGN (0x4)
                [!provide]                        PROVIDE (__dtors_end__ = .)
                0x00000000000230c8                . = ALIGN (0x4)
                0x00000000000230c8                . = ALIGN (0x4)

.eh_frame_hdr
 *(.eh_frame_hdr)

.eh_frame
 *(.eh_frame)
                0x00000000000230c8                . = ALIGN (0x4)
                [!provide]                        PROVIDE (__exidx_start = .)

.ARM.exidx      0x00000000000230c8        0x8
 *(.ARM.exidx* .gnu.linkonce.armexidx.*)
 .ARM.exidx     0x00000000000230c8        0x8 /usr/lib/gcc/arm-none-eabi/10.3.1/libgcc.a(_udivmoddi4.o)
                [!provide]                        PROVIDE (__exidx_end = .)

.rel.dyn        0x00000000000230d0        0x0
 .rel.iplt      0x00000000000230d0        0x0 startup.o
                0x00000000000230d0                . = ALIGN (0x4)
                0x00000000000230d0                __end_of_text__ = .
                0x00000000000230d0                _etext = .
                [!provide]                        PROVIDE (etext = .)

.data           0x0000000040000000      0x9b8 load address 0x00000000000230d0
                0x0000000040000000                _sdata = .
                0x0000000040000000                . = ALIGN (0x4)
                0x0000000040000000                __data_beg__ = .
                0x00000000400230d0                __data_beg_src__ = __end_of_text__
 *(.vectmapped)
                0x0000000040000000                . = ALIGN (0x4)
 *(.fastrun)
                0x0000000040000000                . = ALIGN (0x4)
                0x0000000040000000                . = ALIGN (0x4)
 *(.data)
 .data          0x0000000040000000        0x0 startup.o
 .data          0x0000000040000000        0x0 main.o
 .data          0x0000000040000000        0x0 lpc2388/_init.o
 .data          0x0000000040000000        0x0 lpc2388/ff.o
 .data          0x0000000040000000        0x1 lpc2388/ffsdmm.o
 .data          0x0000000040000001        0x0 lpc2388/lcdlib2388.o
 .data          0x0000000040000001        0x0 lpc2388/malloc2388.o
 .data          0x0000000040000001        0x0 lpc2388/rom_func.o
 .data          0x0000000040000001        0x0 lpc2388/tinymalloc.o
 .data          0x0000000040000001        0x0 lpc2388/uart.o
 .data          0x0000000040000001        0x0 lpc2388/vic_lpc23xx.o
 .data          0x0000000040000001        0x0 lpc2388/xprintf.o
 .data          0x0000000040000001        0x0 /usr/lib//arm-none-eabi/lib/libm.a(lib_a-s_atan.o)
 .data          0x0000000040000001        0x0 /usr/lib//arm-none-eabi/lib/libm.a(lib_a-s_cbrt.o)
 .data          0x0000000040000001        0x0 /usr/lib//arm-none-eabi/lib/libm.a(lib_a-s_ceil.o)
 .data          0x0000000040000001        0x0 /usr/lib//arm-none-eabi/lib/libm.a(lib_a-s_cos.o)
 .data          0x0000000040000001        0x0 /usr/lib//arm-none-eabi/lib/libm.a(lib_a-s_erf.o)
 .data          0x0000000040000001        0x0 /usr/lib//arm-none-eabi/lib/libm.a(lib_a-s_fabs.o)
 .data          0x0000000040000001        0x0 /usr/lib//arm-none-eabi/lib/libm.a(lib_a-s_floor.o)
 .data          0x0000000040000001        0x0 /usr/lib//arm-none-eabi/lib/libm.a(lib_a-s_modf.o)
 .data          0x0000000040000001        0x0 /usr/lib//arm-none-eabi/lib/libm.a(lib_a-s_round.o)
 .data          0x0000000040000001        0x0 /usr/lib//arm-none-eabi/lib/libm.a(lib_a-s_sin.o)
 .data          0x0000000040000001        0x0 /usr/lib//arm-none-eabi/lib/libm.a(lib_a-s_tan.o)
 .data          0x0000000040000001        0x0 /usr/lib//arm-none-eabi/lib/libm.a(lib_a-s_tanh.o)
 .data          0x0000000040000001        0x0 /usr/lib//arm-none-eabi/lib/libm.a(lib_a-s_trunc.o)
 .data          0x0000000040000001        0x0 /usr/lib//arm-none-eabi/lib/libm.a(lib_a-w_acos.o)
 .data          0x0000000040000001        0x0 /usr/lib//arm-none-eabi/lib/libm.a(lib_a-w_asin.o)
 .data          0x0000000040000001        0x0 /usr/lib//arm-none-eabi/lib/libm.a(lib_a-w_atan2.o)
 .data          0x0000000040000001        0x0 /usr/lib//arm-none-eabi/lib/libm.a(lib_a-w_cosh.o)
 .data          0x0000000040000001        0x0 /usr/lib//arm-none-eabi/lib/libm.a(lib_a-w_exp.o)
 .data          0x0000000040000001        0x0 /usr/lib//arm-none-eabi/lib/libm.a(lib_a-w_fmod.o)
 .data          0x0000000040000001        0x0 /usr/lib//arm-none-eabi/lib/libm.a(lib_a-w_hypot.o)
 .data          0x0000000040000001        0x0 /usr/lib//arm-none-eabi/lib/libm.a(lib_a-w_log.o)
 .data          0x0000000040000001        0x0 /usr/lib//arm-none-eabi/lib/libm.a(lib_a-w_log10.o)
 .data          0x0000000040000001        0x0 /usr/lib//arm-none-eabi/lib/libm.a(lib_a-w_pow.o)
 .data          0x0000000040000001        0x0 /usr/lib//arm-none-eabi/lib/libm.a(lib_a-w_sinh.o)
 .data          0x0000000040000001        0x0 /usr/lib//arm-none-eabi/lib/libm.a(lib_a-w_sqrt.o)
 .data          0x0000000040000001        0x0 /usr/lib//arm-none-eabi/lib/libm.a(lib_a-e_acos.o)
 .data          0x0000000040000001        0x0 /usr/lib//arm-none-eabi/lib/libm.a(lib_a-e_asin.o)
 .data          0x0000000040000001        0x0 /usr/lib//arm-none-eabi/lib/libm.a(lib_a-e_atan2.o)
 .data          0x0000000040000001        0x0 /usr/lib//arm-none-eabi/lib/libm.a(lib_a-e_cosh.o)
 .data          0x0000000040000001        0x0 /usr/lib//arm-none-eabi/lib/libm.a(lib_a-e_exp.o)
 .data          0x0000000040000001        0x0 /usr/lib//arm-none-eabi/lib/libm.a(lib_a-e_fmod.o)
 .data          0x0000000040000001        0x0 /usr/lib//arm-none-eabi/lib/libm.a(lib_a-e_hypot.o)
 .data          0x0000000040000001        0x0 /usr/lib//arm-none-eabi/lib/libm.a(lib_a-e_log.o)
 .data          0x0000000040000001        0x0 /usr/lib//arm-none-eabi/lib/libm.a(lib_a-e_log10.o)
 .data          0x0000000040000001        0x0 /usr/lib//arm-none-eabi/lib/libm.a(lib_a-e_pow.o)
 .data          0x0000000040000001        0x0 /usr/lib//arm-none-eabi/lib/libm.a(lib_a-e_rem_pio2.o)
 .data          0x0000000040000001        0x0 /usr/lib//arm-none-eabi/lib/libm.a(lib_a-e_sinh.o)
 .data          0x0000000040000001        0x0 /usr/lib//arm-none-eabi/lib/libm.a(lib_a-e_sqrt.o)
 .data          0x0000000040000001        0x0 /usr/lib//arm-none-eabi/lib/libm.a(lib_a-k_cos.o)
 .data          0x0000000040000001        0x0 /usr/lib//arm-none-eabi/lib/libm.a(lib_a-k_rem_pio2.o)
 .data          0x0000000040000001        0x0 /usr/lib//arm-none-eabi/lib/libm.a(lib_a-k_sin.o)
 .data          0x0000000040000001        0x0 /usr/lib//arm-none-eabi/lib/libm.a(lib_a-k_tan.o)
 .data          0x0000000040000001        0x0 /usr/lib//arm-none-eabi/lib/libm.a(lib_a-s_expm1.o)
 .data          0x0000000040000001        0x0 /usr/lib//arm-none-eabi/lib/libm.a(lib_a-s_finite.o)
 .data          0x0000000040000001        0x1 /usr/lib//arm-none-eabi/lib/libm.a(lib_a-s_lib_ver.o)
                0x0000000040000001                __fdlib_version
 .data          0x0000000040000002        0x0 /usr/lib//arm-none-eabi/lib/libm.a(lib_a-s_nan.o)
 .data          0x0000000040000002        0x0 /usr/lib//arm-none-eabi/lib/libm.a(lib_a-s_rint.o)
 .data          0x0000000040000002        0x0 /usr/lib//arm-none-eabi/lib/libm.a(lib_a-s_scalbn.o)
 .data          0x0000000040000002        0x0 /usr/lib//arm-none-eabi/lib/libm.a(lib_a-math_err.o)
 .data          0x0000000040000002        0x0 /usr/lib//arm-none-eabi/lib/libc.a(lib_a-atof.o)
 .data          0x0000000040000002        0x0 /usr/lib//arm-none-eabi/lib/libc.a(lib_a-atoi.o)
 .data          0x0000000040000002        0x0 /usr/lib//arm-none-eabi/lib/libc.a(lib_a-atol.o)
 .data          0x0000000040000002        0x0 /usr/lib//arm-none-eabi/lib/libc.a(lib_a-bsearch.o)
 .data          0x0000000040000002        0x0 /usr/lib//arm-none-eabi/lib/libc.a(lib_a-ctype_.o)
 .data          0x0000000040000002        0x0 /usr/lib//arm-none-eabi/lib/libc.a(lib_a-errno.o)
 *fill*         0x0000000040000002        0x6 
 .data          0x0000000040000008      0x430 /usr/lib//arm-none-eabi/lib/libc.a(lib_a-impure.o)
                0x0000000040000008                _impure_ptr
 .data          0x0000000040000438        0x0 /usr/lib//arm-none-eabi/lib/libc.a(lib_a-malloc.o)
 .data          0x0000000040000438      0x410 /usr/lib//arm-none-eabi/lib/libc.a(lib_a-mallocr.o)
                0x0000000040000438                __malloc_av_
                0x0000000040000840                __malloc_sbrk_base
                0x0000000040000844                __malloc_trim_threshold
 .data          0x0000000040000848        0x0 /usr/lib//arm-none-eabi/lib/libc.a(lib_a-memchr-stub.o)
 .data          0x0000000040000848        0x0 /usr/lib//arm-none-eabi/lib/libc.a(lib_a-memcmp.o)
 .data          0x0000000040000848        0x0 /usr/lib//arm-none-eabi/lib/libc.a(lib_a-memcpy-stub.o)
 .data          0x0000000040000848        0x0 /usr/lib//arm-none-eabi/lib/libc.a(lib_a-memmove.o)
 .data          0x0000000040000848        0x0 /usr/lib//arm-none-eabi/lib/libc.a(lib_a-memset.o)
 .data          0x0000000040000848        0x0 /usr/lib//arm-none-eabi/lib/libc.a(lib_a-mlock.o)
 .data          0x0000000040000848        0x0 /usr/lib//arm-none-eabi/lib/libc.a(lib_a-qsort.o)
 .data          0x0000000040000848        0x0 /usr/lib//arm-none-eabi/lib/libc.a(lib_a-rand.o)
 .data          0x0000000040000848        0x0 /usr/lib//arm-none-eabi/lib/libc.a(lib_a-sbrkr.o)
 .data          0x0000000040000848        0x0 /usr/lib//arm-none-eabi/lib/libc.a(lib_a-sprintf.o)
 .data          0x0000000040000848        0x0 /usr/lib//arm-none-eabi/lib/libc.a(lib_a-strcat.o)
 .data          0x0000000040000848        0x0 /usr/lib//arm-none-eabi/lib/libc.a(lib_a-strchr.o)
 .data          0x0000000040000848        0x0 /usr/lib//arm-none-eabi/lib/libc.a(lib_a-strcpy.o)
 .data          0x0000000040000848        0x0 /usr/lib//arm-none-eabi/lib/libc.a(lib_a-strcspn.o)
 .data          0x0000000040000848        0x0 /usr/lib//arm-none-eabi/lib/libc.a(lib_a-strncat.o)
 .data          0x0000000040000848        0x0 /usr/lib//arm-none-eabi/lib/libc.a(lib_a-strncpy.o)
 .data          0x0000000040000848        0x0 /usr/lib//arm-none-eabi/lib/libc.a(lib_a-strrchr.o)
 .data          0x0000000040000848        0x0 /usr/lib//arm-none-eabi/lib/libc.a(lib_a-strspn.o)
 .data          0x0000000040000848        0x0 /usr/lib//arm-none-eabi/lib/libc.a(lib_a-strstr.o)
 .data          0x0000000040000848        0x0 /usr/lib//arm-none-eabi/lib/libc.a(lib_a-strtod.o)
 .data          0x0000000040000848        0x0 /usr/lib//arm-none-eabi/lib/libc.a(lib_a-strtok.o)
 .data          0x0000000040000848        0x0 /usr/lib//arm-none-eabi/lib/libc.a(lib_a-strtok_r.o)
 .data          0x0000000040000848        0x0 /usr/lib//arm-none-eabi/lib/libc.a(lib_a-strtol.o)
 .data          0x0000000040000848        0x0 /usr/lib//arm-none-eabi/lib/libc.a(lib_a-svfprintf.o)
 .data          0x0000000040000848        0x0 /usr/lib//arm-none-eabi/lib/libc.a(lib_a-vsprintf.o)
 .data          0x0000000040000848        0x0 /usr/lib//arm-none-eabi/lib/libc.a(lib_a-dtoa.o)
 .data          0x0000000040000848        0x0 /usr/lib//arm-none-eabi/lib/libc.a(lib_a-freer.o)
 .data          0x0000000040000848        0x0 /usr/lib//arm-none-eabi/lib/libc.a(lib_a-gdtoa-gethex.o)
 .data          0x0000000040000848        0x0 /usr/lib//arm-none-eabi/lib/libc.a(lib_a-gdtoa-hexnan.o)
 .data          0x0000000040000848        0x2 /usr/lib//arm-none-eabi/lib/libc.a(lib_a-lnumeric.o)
 *fill*         0x000000004000084a        0x2 
 .data          0x000000004000084c      0x16c /usr/lib//arm-none-eabi/lib/libc.a(lib_a-locale.o)
                0x000000004000084c                __global_locale
 .data          0x00000000400009b8        0x0 /usr/lib//arm-none-eabi/lib/libc.a(lib_a-localeconv.o)
 .data          0x00000000400009b8        0x0 /usr/lib//arm-none-eabi/lib/libc.a(lib_a-mbtowc_r.o)
 .data          0x00000000400009b8        0x0 /usr/lib//arm-none-eabi/lib/libc.a(lib_a-mprec.o)
 .data          0x00000000400009b8        0x0 /usr/lib//arm-none-eabi/lib/libc.a(lib_a-reent.o)
 .data          0x00000000400009b8        0x0 /usr/lib//arm-none-eabi/lib/libc.a(lib_a-sf_nan.o)
 .data          0x00000000400009b8        0x0 /usr/lib//arm-none-eabi/lib/libc.a(lib_a-strcmp.o)
 .data          0x00000000400009b8        0x0 /usr/lib//arm-none-eabi/lib/libc.a(lib_a-strlen-stub.o)
 .data          0x00000000400009b8        0x0 /usr/lib//arm-none-eabi/lib/libc.a(lib_a-strncmp.o)
 .data          0x00000000400009b8        0x0 /usr/lib//arm-none-eabi/lib/libc.a(lib_a-strnlen.o)
 .data          0x00000000400009b8        0x0 /usr/lib//arm-none-eabi/lib/libc.a(lib_a-svfiprintf.o)
 .data          0x00000000400009b8        0x0 /usr/lib//arm-none-eabi/lib/libc.a(lib_a-wctomb_r.o)
 .data          0x00000000400009b8        0x0 /usr/lib//arm-none-eabi/lib/libc.a(lib_a-assert.o)
 .data          0x00000000400009b8        0x0 /usr/lib//arm-none-eabi/lib/libc.a(lib_a-callocr.o)
 .data          0x00000000400009b8        0x0 /usr/lib//arm-none-eabi/lib/libc.a(lib_a-fiprintf.o)
 .data          0x00000000400009b8        0x0 /usr/lib//arm-none-eabi/lib/libc.a(lib_a-reallocr.o)
 .data          0x00000000400009b8        0x0 /usr/lib//arm-none-eabi/lib/libc.a(lib_a-vfiprintf.o)
 .data          0x00000000400009b8        0x0 /usr/lib//arm-none-eabi/lib/libc.a(lib_a-wsetup.o)
 .data          0x00000000400009b8        0x0 /usr/lib//arm-none-eabi/lib/libc.a(lib_a-abort.o)
 .data          0x00000000400009b8        0x0 /usr/lib//arm-none-eabi/lib/libc.a(lib_a-fflush.o)
 .data          0x00000000400009b8        0x0 /usr/lib//arm-none-eabi/lib/libc.a(lib_a-findfp.o)
 .data          0x00000000400009b8        0x0 /usr/lib//arm-none-eabi/lib/libc.a(lib_a-fputwc.o)
 .data          0x00000000400009b8        0x0 /usr/lib//arm-none-eabi/lib/libc.a(lib_a-fvwrite.o)
 .data          0x00000000400009b8        0x0 /usr/lib//arm-none-eabi/lib/libc.a(lib_a-fwalk.o)
 .data          0x00000000400009b8        0x0 /usr/lib//arm-none-eabi/lib/libc.a(lib_a-makebuf.o)
 .data          0x00000000400009b8        0x0 /usr/lib//arm-none-eabi/lib/libc.a(lib_a-signal.o)
 .data          0x00000000400009b8        0x0 /usr/lib//arm-none-eabi/lib/libc.a(lib_a-signalr.o)
 .data          0x00000000400009b8        0x0 /usr/lib//arm-none-eabi/lib/libc.a(lib_a-stdio.o)
 .data          0x00000000400009b8        0x0 /usr/lib//arm-none-eabi/lib/libc.a(lib_a-wbuf.o)
 .data          0x00000000400009b8        0x0 /usr/lib//arm-none-eabi/lib/libc.a(lib_a-wcrtomb.o)
 .data          0x00000000400009b8        0x0 /usr/lib//arm-none-eabi/lib/libc.a(lib_a-writer.o)
 .data          0x00000000400009b8        0x0 /usr/lib//arm-none-eabi/lib/libc.a(lib_a-closer.o)
 .data          0x00000000400009b8        0x0 /usr/lib//arm-none-eabi/lib/libc.a(lib_a-fclose.o)
 .data          0x00000000400009b8        0x0 /usr/lib//arm-none-eabi/lib/libc.a(lib_a-fstatr.o)
 .data          0x00000000400009b8        0x0 /usr/lib//arm-none-eabi/lib/libc.a(lib_a-isattyr.o)
 .data          0x00000000400009b8        0x0 /usr/lib//arm-none-eabi/lib/libc.a(lib_a-lseekr.o)
 .data          0x00000000400009b8        0x0 /usr/lib//arm-none-eabi/lib/libc.a(lib_a-readr.o)
 .data          0x00000000400009b8        0x0 /usr/lib//arm-none-eabi/lib/libnosys.a(close.o)
 .data          0x00000000400009b8        0x0 /usr/lib//arm-none-eabi/lib/libnosys.a(fstat.o)
 .data          0x00000000400009b8        0x0 /usr/lib//arm-none-eabi/lib/libnosys.a(getpid.o)
 .data          0x00000000400009b8        0x0 /usr/lib//arm-none-eabi/lib/libnosys.a(isatty.o)
 .data          0x00000000400009b8        0x0 /usr/lib//arm-none-eabi/lib/libnosys.a(kill.o)
 .data          0x00000000400009b8        0x0 /usr/lib//arm-none-eabi/lib/libnosys.a(lseek.o)
 .data          0x00000000400009b8        0x0 /usr/lib//arm-none-eabi/lib/libnosys.a(read.o)
 .data          0x00000000400009b8        0x0 /usr/lib//arm-none-eabi/lib/libnosys.a(sbrk.o)
 .data          0x00000000400009b8        0x0 /usr/lib//arm-none-eabi/lib/libnosys.a(write.o)
 .data          0x00000000400009b8        0x0 /usr/lib//arm-none-eabi/lib/libnosys.a(_exit.o)
 .data          0x00000000400009b8        0x0 /usr/lib/gcc/arm-none-eabi/10.3.1/libgcc.a(_arm_muldf3.o)
 .data          0x00000000400009b8        0x0 /usr/lib/gcc/arm-none-eabi/10.3.1/libgcc.a(_arm_mulsf3.o)
 .data          0x00000000400009b8        0x0 /usr/lib/gcc/arm-none-eabi/10.3.1/libgcc.a(_udivsi3.o)
 .data          0x00000000400009b8        0x0 /usr/lib/gcc/arm-none-eabi/10.3.1/libgcc.a(_divsi3.o)
 .data          0x00000000400009b8        0x0 /usr/lib/gcc/arm-none-eabi/10.3.1/libgcc.a(_dvmd_tls.o)
 .data          0x00000000400009b8        0x0 /usr/lib/gcc/arm-none-eabi/10.3.1/libgcc.a(_arm_addsubdf3.o)
 .data          0x00000000400009b8        0x0 /usr/lib/gcc/arm-none-eabi/10.3.1/libgcc.a(_arm_muldivdf3.o)
 .data          0x00000000400009b8        0x0 /usr/lib/gcc/arm-none-eabi/10.3.1/libgcc.a(_arm_cmpdf2.o)
 .data          0x00000000400009b8        0x0 /usr/lib/gcc/arm-none-eabi/10.3.1/libgcc.a(_arm_unorddf2.o)
 .data          0x00000000400009b8        0x0 /usr/lib/gcc/arm-none-eabi/10.3.1/libgcc.a(_arm_fixdfsi.o)
 .data          0x00000000400009b8        0x0 /usr/lib/gcc/arm-none-eabi/10.3.1/libgcc.a(_arm_fixunsdfsi.o)
 .data          0x00000000400009b8        0x0 /usr/lib/gcc/arm-none-eabi/10.3.1/libgcc.a(_arm_truncdfsf2.o)
 .data          0x00000000400009b8        0x0 /usr/lib/gcc/arm-none-eabi/10.3.1/libgcc.a(_arm_addsubsf3.o)
 .data          0x00000000400009b8        0x0 /usr/lib/gcc/arm-none-eabi/10.3.1/libgcc.a(_arm_muldivsf3.o)
 .data          0x00000000400009b8        0x0 /usr/lib/gcc/arm-none-eabi/10.3.1/libgcc.a(_arm_cmpsf2.o)
 .data          0x00000000400009b8        0x0 /usr/lib/gcc/arm-none-eabi/10.3.1/libgcc.a(_arm_unordsf2.o)
 .data          0x00000000400009b8        0x0 /usr/lib/gcc/arm-none-eabi/10.3.1/libgcc.a(_arm_fixsfsi.o)
 .data          0x00000000400009b8        0x0 /usr/lib/gcc/arm-none-eabi/10.3.1/libgcc.a(_arm_fixunssfsi.o)
 .data          0x00000000400009b8        0x0 /usr/lib/gcc/arm-none-eabi/10.3.1/libgcc.a(_aeabi_ldivmod.o)
 .data          0x00000000400009b8        0x0 /usr/lib/gcc/arm-none-eabi/10.3.1/libgcc.a(_aeabi_uldivmod.o)
 .data          0x00000000400009b8        0x0 /usr/lib/gcc/arm-none-eabi/10.3.1/libgcc.a(_fixsfdi.o)
 .data          0x00000000400009b8        0x0 /usr/lib/gcc/arm-none-eabi/10.3.1/libgcc.a(_fixdfdi.o)
 .data          0x00000000400009b8        0x0 /usr/lib/gcc/arm-none-eabi/10.3.1/libgcc.a(_fixunssfdi.o)
 .data          0x00000000400009b8        0x0 /usr/lib/gcc/arm-none-eabi/10.3.1/libgcc.a(_fixunsdfdi.o)
 .data          0x00000000400009b8        0x0 /usr/lib/gcc/arm-none-eabi/10.3.1/libgcc.a(_udivmoddi4.o)
 .data          0x00000000400009b8        0x0 /usr/lib/gcc/arm-none-eabi/10.3.1/libgcc.a(_clzdi2.o)
 .data          0x00000000400009b8        0x0 /usr/lib/gcc/arm-none-eabi/10.3.1/libgcc.a(_clzsi2.o)
 *(.data.*)
 *(.gnu.linkonce.d*)
                0x00000000400009b8                . = ALIGN (0x4)
                [!provide]                        PROVIDE (__preinit_array_start = .)
 *(.preinit_array)
                [!provide]                        PROVIDE (__preinit_array_end = .)
                0x00000000400009b8                . = ALIGN (0x4)
                [!provide]                        PROVIDE (__init_array_start = .)
 *(SORT_BY_NAME(.init_array.*))
 *(.init_array)
                [!provide]                        PROVIDE (__init_array_end = .)
                0x00000000400009b8                . = ALIGN (0x4)
                [!provide]                        PROVIDE (__fini_array_start = .)
 *(SORT_BY_NAME(.fini_array.*))
 *(.fini_array)
                [!provide]                        PROVIDE (__fini_array_end = .)
 *(.jcr*)
                0x00000000400009b8                . = ALIGN (0x4)
                0x00000000400009b8                _edata = .

.igot.plt       0x00000000400009b8        0x0 load address 0x0000000000023a88
 .igot.plt      0x00000000400009b8        0x0 startup.o

.bss            0x00000000400009b8       0x94 load address 0x0000000000023a88
                0x00000000400009b8                . = ALIGN (0x4)
                0x00000000400009b8                _sbss = .
 *(.bss)
 .bss           0x00000000400009b8        0x0 startup.o
 .bss           0x00000000400009b8        0x0 main.o
 .bss           0x00000000400009b8        0x0 lpc2388/_init.o
 .bss           0x00000000400009b8        0x6 lpc2388/ff.o
 .bss           0x00000000400009be        0x1 lpc2388/ffsdmm.o
 .bss           0x00000000400009bf        0x0 lpc2388/lcdlib2388.o
 *fill*         0x00000000400009bf        0x1 
 .bss           0x00000000400009c0       0x40 lpc2388/malloc2388.o
                0x00000000400009c0                _tiny_malloc_flag
                0x00000000400009c4                _tn_malloc_info
 .bss           0x0000000040000a00        0x0 lpc2388/rom_func.o
 .bss           0x0000000040000a00        0x0 lpc2388/tinymalloc.o
 .bss           0x0000000040000a00        0x0 lpc2388/uart.o
 .bss           0x0000000040000a00        0x0 lpc2388/vic_lpc23xx.o
 .bss           0x0000000040000a00        0xc lpc2388/xprintf.o
                0x0000000040000a04                xfunc_out
                0x0000000040000a08                xfunc_in
 .bss           0x0000000040000a0c        0x0 /usr/lib//arm-none-eabi/lib/libm.a(lib_a-s_atan.o)
 .bss           0x0000000040000a0c        0x0 /usr/lib//arm-none-eabi/lib/libm.a(lib_a-s_cbrt.o)
 .bss           0x0000000040000a0c        0x0 /usr/lib//arm-none-eabi/lib/libm.a(lib_a-s_ceil.o)
 .bss           0x0000000040000a0c        0x0 /usr/lib//arm-none-eabi/lib/libm.a(lib_a-s_cos.o)
 .bss           0x0000000040000a0c        0x0 /usr/lib//arm-none-eabi/lib/libm.a(lib_a-s_erf.o)
 .bss           0x0000000040000a0c        0x0 /usr/lib//arm-none-eabi/lib/libm.a(lib_a-s_fabs.o)
 .bss           0x0000000040000a0c        0x0 /usr/lib//arm-none-eabi/lib/libm.a(lib_a-s_floor.o)
 .bss           0x0000000040000a0c        0x0 /usr/lib//arm-none-eabi/lib/libm.a(lib_a-s_modf.o)
 .bss           0x0000000040000a0c        0x0 /usr/lib//arm-none-eabi/lib/libm.a(lib_a-s_round.o)
 .bss           0x0000000040000a0c        0x0 /usr/lib//arm-none-eabi/lib/libm.a(lib_a-s_sin.o)
 .bss           0x0000000040000a0c        0x0 /usr/lib//arm-none-eabi/lib/libm.a(lib_a-s_tan.o)
 .bss           0x0000000040000a0c        0x0 /usr/lib//arm-none-eabi/lib/libm.a(lib_a-s_tanh.o)
 .bss           0x0000000040000a0c        0x0 /usr/lib//arm-none-eabi/lib/libm.a(lib_a-s_trunc.o)
 .bss           0x0000000040000a0c        0x0 /usr/lib//arm-none-eabi/lib/libm.a(lib_a-w_acos.o)
 .bss           0x0000000040000a0c        0x0 /usr/lib//arm-none-eabi/lib/libm.a(lib_a-w_asin.o)
 .bss           0x0000000040000a0c        0x0 /usr/lib//arm-none-eabi/lib/libm.a(lib_a-w_atan2.o)
 .bss           0x0000000040000a0c        0x0 /usr/lib//arm-none-eabi/lib/libm.a(lib_a-w_cosh.o)
 .bss           0x0000000040000a0c        0x0 /usr/lib//arm-none-eabi/lib/libm.a(lib_a-w_exp.o)
 .bss           0x0000000040000a0c        0x0 /usr/lib//arm-none-eabi/lib/libm.a(lib_a-w_fmod.o)
 .bss           0x0000000040000a0c        0x0 /usr/lib//arm-none-eabi/lib/libm.a(lib_a-w_hypot.o)
 .bss           0x0000000040000a0c        0x0 /usr/lib//arm-none-eabi/lib/libm.a(lib_a-w_log.o)
 .bss           0x0000000040000a0c        0x0 /usr/lib//arm-none-eabi/lib/libm.a(lib_a-w_log10.o)
 .bss           0x0000000040000a0c        0x0 /usr/lib//arm-none-eabi/lib/libm.a(lib_a-w_pow.o)
 .bss           0x0000000040000a0c        0x0 /usr/lib//arm-none-eabi/lib/libm.a(lib_a-w_sinh.o)
 .bss           0x0000000040000a0c        0x0 /usr/lib//arm-none-eabi/lib/libm.a(lib_a-w_sqrt.o)
 .bss           0x0000000040000a0c        0x0 /usr/lib//arm-none-eabi/lib/libm.a(lib_a-e_acos.o)
 .bss           0x0000000040000a0c        0x0 /usr/lib//arm-none-eabi/lib/libm.a(lib_a-e_asin.o)
 .bss           0x0000000040000a0c        0x0 /usr/lib//arm-none-eabi/lib/libm.a(lib_a-e_atan2.o)
 .bss           0x0000000040000a0c        0x0 /usr/lib//arm-none-eabi/lib/libm.a(lib_a-e_cosh.o)
 .bss           0x0000000040000a0c        0x0 /usr/lib//arm-none-eabi/lib/libm.a(lib_a-e_exp.o)
 .bss           0x0000000040000a0c        0x0 /usr/lib//arm-none-eabi/lib/libm.a(lib_a-e_fmod.o)
 .bss           0x0000000040000a0c        0x0 /usr/lib//arm-none-eabi/lib/libm.a(lib_a-e_hypot.o)
 .bss           0x0000000040000a0c        0x0 /usr/lib//arm-none-eabi/lib/libm.a(lib_a-e_log.o)
 .bss           0x0000000040000a0c        0x0 /usr/lib//arm-none-eabi/lib/libm.a(lib_a-e_log10.o)
 .bss           0x0000000040000a0c        0x0 /usr/lib//arm-none-eabi/lib/libm.a(lib_a-e_pow.o)
 .bss           0x0000000040000a0c        0x0 /usr/lib//arm-none-eabi/lib/libm.a(lib_a-e_rem_pio2.o)
 .bss           0x0000000040000a0c        0x0 /usr/lib//arm-none-eabi/lib/libm.a(lib_a-e_sinh.o)
 .bss           0x0000000040000a0c        0x0 /usr/lib//arm-none-eabi/lib/libm.a(lib_a-e_sqrt.o)
 .bss           0x0000000040000a0c        0x0 /usr/lib//arm-none-eabi/lib/libm.a(lib_a-k_cos.o)
 .bss           0x0000000040000a0c        0x0 /usr/lib//arm-none-eabi/lib/libm.a(lib_a-k_rem_pio2.o)
 .bss           0x0000000040000a0c        0x0 /usr/lib//arm-none-eabi/lib/libm.a(lib_a-k_sin.o)
 .bss           0x0000000040000a0c        0x0 /usr/lib//arm-none-eabi/lib/libm.a(lib_a-k_tan.o)
 .bss           0x0000000040000a0c        0x0 /usr/lib//arm-none-eabi/lib/libm.a(lib_a-s_expm1.o)
 .bss           0x0000000040000a0c        0x0 /usr/lib//arm-none-eabi/lib/libm.a(lib_a-s_finite.o)
 .bss           0x0000000040000a0c        0x0 /usr/lib//arm-none-eabi/lib/libm.a(lib_a-s_lib_ver.o)
 .bss           0x0000000040000a0c        0x0 /usr/lib//arm-none-eabi/lib/libm.a(lib_a-s_nan.o)
 .bss           0x0000000040000a0c        0x0 /usr/lib//arm-none-eabi/lib/libm.a(lib_a-s_rint.o)
 .bss           0x0000000040000a0c        0x0 /usr/lib//arm-none-eabi/lib/libm.a(lib_a-s_scalbn.o)
 .bss           0x0000000040000a0c        0x0 /usr/lib//arm-none-eabi/lib/libm.a(lib_a-math_err.o)
 .bss           0x0000000040000a0c        0x0 /usr/lib//arm-none-eabi/lib/libc.a(lib_a-atof.o)
 .bss           0x0000000040000a0c        0x0 /usr/lib//arm-none-eabi/lib/libc.a(lib_a-atoi.o)
 .bss           0x0000000040000a0c        0x0 /usr/lib//arm-none-eabi/lib/libc.a(lib_a-atol.o)
 .bss           0x0000000040000a0c        0x0 /usr/lib//arm-none-eabi/lib/libc.a(lib_a-bsearch.o)
 .bss           0x0000000040000a0c        0x0 /usr/lib//arm-none-eabi/lib/libc.a(lib_a-ctype_.o)
 .bss           0x0000000040000a0c        0x0 /usr/lib//arm-none-eabi/lib/libc.a(lib_a-errno.o)
 .bss           0x0000000040000a0c        0x0 /usr/lib//arm-none-eabi/lib/libc.a(lib_a-impure.o)
 .bss           0x0000000040000a0c        0x0 /usr/lib//arm-none-eabi/lib/libc.a(lib_a-malloc.o)
 .bss           0x0000000040000a0c       0x34 /usr/lib//arm-none-eabi/lib/libc.a(lib_a-mallocr.o)
                0x0000000040000a0c                __malloc_top_pad
                0x0000000040000a10                __malloc_current_mallinfo
                0x0000000040000a38                __malloc_max_sbrked_mem
                0x0000000040000a3c                __malloc_max_total_mem
 .bss           0x0000000040000a40        0x0 /usr/lib//arm-none-eabi/lib/libc.a(lib_a-memchr-stub.o)
 .bss           0x0000000040000a40        0x0 /usr/lib//arm-none-eabi/lib/libc.a(lib_a-memcmp.o)
 .bss           0x0000000040000a40        0x0 /usr/lib//arm-none-eabi/lib/libc.a(lib_a-memcpy-stub.o)
 .bss           0x0000000040000a40        0x0 /usr/lib//arm-none-eabi/lib/libc.a(lib_a-memmove.o)
 .bss           0x0000000040000a40        0x0 /usr/lib//arm-none-eabi/lib/libc.a(lib_a-memset.o)
 .bss           0x0000000040000a40        0x0 /usr/lib//arm-none-eabi/lib/libc.a(lib_a-mlock.o)
 .bss           0x0000000040000a40        0x0 /usr/lib//arm-none-eabi/lib/libc.a(lib_a-qsort.o)
 .bss           0x0000000040000a40        0x0 /usr/lib//arm-none-eabi/lib/libc.a(lib_a-rand.o)
 .bss           0x0000000040000a40        0x0 /usr/lib//arm-none-eabi/lib/libc.a(lib_a-sbrkr.o)
 .bss           0x0000000040000a40        0x0 /usr/lib//arm-none-eabi/lib/libc.a(lib_a-sprintf.o)
 .bss           0x0000000040000a40        0x0 /usr/lib//arm-none-eabi/lib/libc.a(lib_a-strcat.o)
 .bss           0x0000000040000a40        0x0 /usr/lib//arm-none-eabi/lib/libc.a(lib_a-strchr.o)
 .bss           0x0000000040000a40        0x0 /usr/lib//arm-none-eabi/lib/libc.a(lib_a-strcpy.o)
 .bss           0x0000000040000a40        0x0 /usr/lib//arm-none-eabi/lib/libc.a(lib_a-strcspn.o)
 .bss           0x0000000040000a40        0x0 /usr/lib//arm-none-eabi/lib/libc.a(lib_a-strncat.o)
 .bss           0x0000000040000a40        0x0 /usr/lib//arm-none-eabi/lib/libc.a(lib_a-strncpy.o)
 .bss           0x0000000040000a40        0x0 /usr/lib//arm-none-eabi/lib/libc.a(lib_a-strrchr.o)
 .bss           0x0000000040000a40        0x0 /usr/lib//arm-none-eabi/lib/libc.a(lib_a-strspn.o)
 .bss           0x0000000040000a40        0x0 /usr/lib//arm-none-eabi/lib/libc.a(lib_a-strstr.o)
 .bss           0x0000000040000a40        0x0 /usr/lib//arm-none-eabi/lib/libc.a(lib_a-strtod.o)
 .bss           0x0000000040000a40        0x0 /usr/lib//arm-none-eabi/lib/libc.a(lib_a-strtok.o)
 .bss           0x0000000040000a40        0x0 /usr/lib//arm-none-eabi/lib/libc.a(lib_a-strtok_r.o)
 .bss           0x0000000040000a40        0x0 /usr/lib//arm-none-eabi/lib/libc.a(lib_a-strtol.o)
 .bss           0x0000000040000a40        0x0 /usr/lib//arm-none-eabi/lib/libc.a(lib_a-svfprintf.o)
 .bss           0x0000000040000a40        0x0 /usr/lib//arm-none-eabi/lib/libc.a(lib_a-vsprintf.o)
 .bss           0x0000000040000a40        0x0 /usr/lib//arm-none-eabi/lib/libc.a(lib_a-dtoa.o)
 .bss           0x0000000040000a40        0x0 /usr/lib//arm-none-eabi/lib/libc.a(lib_a-freer.o)
 .bss           0x0000000040000a40        0x0 /usr/lib//arm-none-eabi/lib/libc.a(lib_a-gdtoa-gethex.o)
 .bss           0x0000000040000a40        0x0 /usr/lib//arm-none-eabi/lib/libc.a(lib_a-gdtoa-hexnan.o)
 .bss           0x0000000040000a40        0x0 /usr/lib//arm-none-eabi/lib/libc.a(lib_a-lnumeric.o)
 .bss           0x0000000040000a40        0x4 /usr/lib//arm-none-eabi/lib/libc.a(lib_a-locale.o)
                0x0000000040000a40                _PathLocale
 .bss           0x0000000040000a44        0x0 /usr/lib//arm-none-eabi/lib/libc.a(lib_a-localeconv.o)
 .bss           0x0000000040000a44        0x0 /usr/lib//arm-none-eabi/lib/libc.a(lib_a-mbtowc_r.o)
 .bss           0x0000000040000a44        0x0 /usr/lib//arm-none-eabi/lib/libc.a(lib_a-mprec.o)
 .bss           0x0000000040000a44        0x4 /usr/lib//arm-none-eabi/lib/libc.a(lib_a-reent.o)
                0x0000000040000a44                errno
 .bss           0x0000000040000a48        0x0 /usr/lib//arm-none-eabi/lib/libc.a(lib_a-sf_nan.o)
 .bss           0x0000000040000a48        0x0 /usr/lib//arm-none-eabi/lib/libc.a(lib_a-strcmp.o)
 .bss           0x0000000040000a48        0x0 /usr/lib//arm-none-eabi/lib/libc.a(lib_a-strlen-stub.o)
 .bss           0x0000000040000a48        0x0 /usr/lib//arm-none-eabi/lib/libc.a(lib_a-strncmp.o)
 .bss           0x0000000040000a48        0x0 /usr/lib//arm-none-eabi/lib/libc.a(lib_a-strnlen.o)
 .bss           0x0000000040000a48        0x0 /usr/lib//arm-none-eabi/lib/libc.a(lib_a-svfiprintf.o)
 .bss           0x0000000040000a48        0x0 /usr/lib//arm-none-eabi/lib/libc.a(lib_a-wctomb_r.o)
 .bss           0x0000000040000a48        0x0 /usr/lib//arm-none-eabi/lib/libc.a(lib_a-assert.o)
 .bss           0x0000000040000a48        0x0 /usr/lib//arm-none-eabi/lib/libc.a(lib_a-callocr.o)
 .bss           0x0000000040000a48        0x0 /usr/lib//arm-none-eabi/lib/libc.a(lib_a-fiprintf.o)
 .bss           0x0000000040000a48        0x0 /usr/lib//arm-none-eabi/lib/libc.a(lib_a-reallocr.o)
 .bss           0x0000000040000a48        0x0 /usr/lib//arm-none-eabi/lib/libc.a(lib_a-vfiprintf.o)
 .bss           0x0000000040000a48        0x0 /usr/lib//arm-none-eabi/lib/libc.a(lib_a-wsetup.o)
 .bss           0x0000000040000a48        0x0 /usr/lib//arm-none-eabi/lib/libc.a(lib_a-abort.o)
 .bss           0x0000000040000a48        0x0 /usr/lib//arm-none-eabi/lib/libc.a(lib_a-fflush.o)
 .bss           0x0000000040000a48        0x0 /usr/lib//arm-none-eabi/lib/libc.a(lib_a-findfp.o)
 .bss           0x0000000040000a48        0x0 /usr/lib//arm-none-eabi/lib/libc.a(lib_a-fputwc.o)
 .bss           0x0000000040000a48        0x0 /usr/lib//arm-none-eabi/lib/libc.a(lib_a-fvwrite.o)
 .bss           0x0000000040000a48        0x0 /usr/lib//arm-none-eabi/lib/libc.a(lib_a-fwalk.o)
 .bss           0x0000000040000a48        0x0 /usr/lib//arm-none-eabi/lib/libc.a(lib_a-makebuf.o)
 .bss           0x0000000040000a48        0x0 /usr/lib//arm-none-eabi/lib/libc.a(lib_a-signal.o)
 .bss           0x0000000040000a48        0x0 /usr/lib//arm-none-eabi/lib/libc.a(lib_a-signalr.o)
 .bss           0x0000000040000a48        0x0 /usr/lib//arm-none-eabi/lib/libc.a(lib_a-stdio.o)
 .bss           0x0000000040000a48        0x0 /usr/lib//arm-none-eabi/lib/libc.a(lib_a-wbuf.o)
 .bss           0x0000000040000a48        0x0 /usr/lib//arm-none-eabi/lib/libc.a(lib_a-wcrtomb.o)
 .bss           0x0000000040000a48        0x0 /usr/lib//arm-none-eabi/lib/libc.a(lib_a-writer.o)
 .bss           0x0000000040000a48        0x0 /usr/lib//arm-none-eabi/lib/libc.a(lib_a-closer.o)
 .bss           0x0000000040000a48        0x0 /usr/lib//arm-none-eabi/lib/libc.a(lib_a-fclose.o)
 .bss           0x0000000040000a48        0x0 /usr/lib//arm-none-eabi/lib/libc.a(lib_a-fstatr.o)
 .bss           0x0000000040000a48        0x0 /usr/lib//arm-none-eabi/lib/libc.a(lib_a-isattyr.o)
 .bss           0x0000000040000a48        0x0 /usr/lib//arm-none-eabi/lib/libc.a(lib_a-lseekr.o)
 .bss           0x0000000040000a48        0x0 /usr/lib//arm-none-eabi/lib/libc.a(lib_a-readr.o)
 .bss           0x0000000040000a48        0x0 /usr/lib//arm-none-eabi/lib/libnosys.a(close.o)
 .bss           0x0000000040000a48        0x0 /usr/lib//arm-none-eabi/lib/libnosys.a(fstat.o)
 .bss           0x0000000040000a48        0x0 /usr/lib//arm-none-eabi/lib/libnosys.a(getpid.o)
 .bss           0x0000000040000a48        0x0 /usr/lib//arm-none-eabi/lib/libnosys.a(isatty.o)
 .bss           0x0000000040000a48        0x0 /usr/lib//arm-none-eabi/lib/libnosys.a(kill.o)
 .bss           0x0000000040000a48        0x0 /usr/lib//arm-none-eabi/lib/libnosys.a(lseek.o)
 .bss           0x0000000040000a48        0x0 /usr/lib//arm-none-eabi/lib/libnosys.a(read.o)
 .bss           0x0000000040000a48        0x4 /usr/lib//arm-none-eabi/lib/libnosys.a(sbrk.o)
 .bss           0x0000000040000a4c        0x0 /usr/lib//arm-none-eabi/lib/libnosys.a(write.o)
 .bss           0x0000000040000a4c        0x0 /usr/lib//arm-none-eabi/lib/libnosys.a(_exit.o)
 .bss           0x0000000040000a4c        0x0 /usr/lib/gcc/arm-none-eabi/10.3.1/libgcc.a(_arm_muldf3.o)
 .bss           0x0000000040000a4c        0x0 /usr/lib/gcc/arm-none-eabi/10.3.1/libgcc.a(_arm_mulsf3.o)
 .bss           0x0000000040000a4c        0x0 /usr/lib/gcc/arm-none-eabi/10.3.1/libgcc.a(_udivsi3.o)
 .bss           0x0000000040000a4c        0x0 /usr/lib/gcc/arm-none-eabi/10.3.1/libgcc.a(_divsi3.o)
 .bss           0x0000000040000a4c        0x0 /usr/lib/gcc/arm-none-eabi/10.3.1/libgcc.a(_dvmd_tls.o)
 .bss           0x0000000040000a4c        0x0 /usr/lib/gcc/arm-none-eabi/10.3.1/libgcc.a(_arm_addsubdf3.o)
 .bss           0x0000000040000a4c        0x0 /usr/lib/gcc/arm-none-eabi/10.3.1/libgcc.a(_arm_muldivdf3.o)
 .bss           0x0000000040000a4c        0x0 /usr/lib/gcc/arm-none-eabi/10.3.1/libgcc.a(_arm_cmpdf2.o)
 .bss           0x0000000040000a4c        0x0 /usr/lib/gcc/arm-none-eabi/10.3.1/libgcc.a(_arm_unorddf2.o)
 .bss           0x0000000040000a4c        0x0 /usr/lib/gcc/arm-none-eabi/10.3.1/libgcc.a(_arm_fixdfsi.o)
 .bss           0x0000000040000a4c        0x0 /usr/lib/gcc/arm-none-eabi/10.3.1/libgcc.a(_arm_fixunsdfsi.o)
 .bss           0x0000000040000a4c        0x0 /usr/lib/gcc/arm-none-eabi/10.3.1/libgcc.a(_arm_truncdfsf2.o)
 .bss           0x0000000040000a4c        0x0 /usr/lib/gcc/arm-none-eabi/10.3.1/libgcc.a(_arm_addsubsf3.o)
 .bss           0x0000000040000a4c        0x0 /usr/lib/gcc/arm-none-eabi/10.3.1/libgcc.a(_arm_muldivsf3.o)
 .bss           0x0000000040000a4c        0x0 /usr/lib/gcc/arm-none-eabi/10.3.1/libgcc.a(_arm_cmpsf2.o)
 .bss           0x0000000040000a4c        0x0 /usr/lib/gcc/arm-none-eabi/10.3.1/libgcc.a(_arm_unordsf2.o)
 .bss           0x0000000040000a4c        0x0 /usr/lib/gcc/arm-none-eabi/10.3.1/libgcc.a(_arm_fixsfsi.o)
 .bss           0x0000000040000a4c        0x0 /usr/lib/gcc/arm-none-eabi/10.3.1/libgcc.a(_arm_fixunssfsi.o)
 .bss           0x0000000040000a4c        0x0 /usr/lib/gcc/arm-none-eabi/10.3.1/libgcc.a(_aeabi_ldivmod.o)
 .bss           0x0000000040000a4c        0x0 /usr/lib/gcc/arm-none-eabi/10.3.1/libgcc.a(_aeabi_uldivmod.o)
 .bss           0x0000000040000a4c        0x0 /usr/lib/gcc/arm-none-eabi/10.3.1/libgcc.a(_fixsfdi.o)
 .bss           0x0000000040000a4c        0x0 /usr/lib/gcc/arm-none-eabi/10.3.1/libgcc.a(_fixdfdi.o)
 .bss           0x0000000040000a4c        0x0 /usr/lib/gcc/arm-none-eabi/10.3.1/libgcc.a(_fixunssfdi.o)
 .bss           0x0000000040000a4c        0x0 /usr/lib/gcc/arm-none-eabi/10.3.1/libgcc.a(_fixunsdfdi.o)
 .bss           0x0000000040000a4c        0x0 /usr/lib/gcc/arm-none-eabi/10.3.1/libgcc.a(_udivmoddi4.o)
 .bss           0x0000000040000a4c        0x0 /usr/lib/gcc/arm-none-eabi/10.3.1/libgcc.a(_clzdi2.o)
 .bss           0x0000000040000a4c        0x0 /usr/lib/gcc/arm-none-eabi/10.3.1/libgcc.a(_clzsi2.o)
 *(.bss.*)
 *(.gnu.linkonce.b*)
 *(COMMON)
                0x0000000040000a4c                . = ALIGN (0x4)
                0x0000000040000a4c                _ebss = .

.stack          0x0000000040000a50      0xa00 load address 0x0000000000023b20
                0x0000000040001250                . = (. + 0x800)
 *fill*         0x0000000040000a50      0x800 
                0x0000000040001250                _sp_base = .
                0x0000000040001450                . = (. + 0x200)
 *fill*         0x0000000040001250      0x200 
                0x0000000040001450                _exception_sp_base = .

.heap           0x0000000040001450      0x800 load address 0x0000000000024520
                0x0000000040001450                _end = .
                [!provide]                        PROVIDE (_end = .)
                0x0000000040001450                PROVIDE (end = .)
                [!provide]                        PROVIDE (_heap = .)
 *(.heap)
 *(.heap*)
 *(.HEAP)
                0x0000000040001c50                . = (. + 0x800)
 *fill*         0x0000000040001450      0x800 
                0x0000000040001c50                _end_of_ram = .

/DISCARD/
 libc.a(*)
 libm.a(*)
 libgcc.a(*)
OUTPUT(out/firmware.elf elf32-littlearm)
LOAD linker stubs
LOAD /usr/lib//arm-none-eabi/lib/libc.a
LOAD /usr/lib//arm-none-eabi/lib/libm.a
LOAD /usr/lib/gcc/arm-none-eabi/10.3.1/libgcc.a

.ARM.attributes
                0x0000000000000000       0x2e
 .ARM.attributes
                0x0000000000000000       0x22 startup.o
 .ARM.attributes
                0x0000000000000022       0x2a main.o
 .ARM.attributes
                0x000000000000004c       0x2a lpc2388/_init.o
 .ARM.attributes
                0x0000000000000076       0x2a lpc2388/ff.o
 .ARM.attributes
                0x00000000000000a0       0x2a lpc2388/ffsdmm.o
 .ARM.attributes
                0x00000000000000ca       0x2a lpc2388/lcdlib2388.o
 .ARM.attributes
                0x00000000000000f4       0x2a lpc2388/malloc2388.o
 .ARM.attributes
                0x000000000000011e       0x2a lpc2388/rom_func.o
 .ARM.attributes
                0x0000000000000148       0x2a lpc2388/tinymalloc.o
 .ARM.attributes
                0x0000000000000172       0x2a lpc2388/uart.o
 .ARM.attributes
                0x000000000000019c       0x2a lpc2388/vic_lpc23xx.o
 .ARM.attributes
                0x00000000000001c6       0x2a lpc2388/xprintf.o
 .ARM.attributes
                0x00000000000001f0       0x2a /usr/lib//arm-none-eabi/lib/libm.a(lib_a-s_atan.o)
 .ARM.attributes
                0x000000000000021a       0x2a /usr/lib//arm-none-eabi/lib/libm.a(lib_a-s_cbrt.o)
 .ARM.attributes
                0x0000000000000244       0x2a /usr/lib//arm-none-eabi/lib/libm.a(lib_a-s_ceil.o)
 .ARM.attributes
                0x000000000000026e       0x2a /usr/lib//arm-none-eabi/lib/libm.a(lib_a-s_cos.o)
 .ARM.attributes
                0x0000000000000298       0x2a /usr/lib//arm-none-eabi/lib/libm.a(lib_a-s_erf.o)
 .ARM.attributes
                0x00000000000002c2       0x2a /usr/lib//arm-none-eabi/lib/libm.a(lib_a-s_fabs.o)
 .ARM.attributes
                0x00000000000002ec       0x2a /usr/lib//arm-none-eabi/lib/libm.a(lib_a-s_floor.o)
 .ARM.attributes
                0x0000000000000316       0x2a /usr/lib//arm-none-eabi/lib/libm.a(lib_a-s_modf.o)
 .ARM.attributes
                0x0000000000000340       0x2a /usr/lib//arm-none-eabi/lib/libm.a(lib_a-s_round.o)
 .ARM.attributes
                0x000000000000036a       0x2a /usr/lib//arm-none-eabi/lib/libm.a(lib_a-s_sin.o)
 .ARM.attributes
                0x0000000000000394       0x2a /usr/lib//arm-none-eabi/lib/libm.a(lib_a-s_tan.o)
 .ARM.attributes
                0x00000000000003be       0x2a /usr/lib//arm-none-eabi/lib/libm.a(lib_a-s_tanh.o)
 .ARM.attributes
                0x00000000000003e8       0x2a /usr/lib//arm-none-eabi/lib/libm.a(lib_a-s_trunc.o)
 .ARM.attributes
                0x0000000000000412       0x2a /usr/lib//arm-none-eabi/lib/libm.a(lib_a-w_acos.o)
 .ARM.attributes
                0x000000000000043c       0x2a /usr/lib//arm-none-eabi/lib/libm.a(lib_a-w_asin.o)
 .ARM.attributes
                0x0000000000000466       0x2a /usr/lib//arm-none-eabi/lib/libm.a(lib_a-w_atan2.o)
 .ARM.attributes
                0x0000000000000490       0x2a /usr/lib//arm-none-eabi/lib/libm.a(lib_a-w_cosh.o)
 .ARM.attributes
                0x00000000000004ba       0x2a /usr/lib//arm-none-eabi/lib/libm.a(lib_a-w_exp.o)
 .ARM.attributes
                0x00000000000004e4       0x2a /usr/lib//arm-none-eabi/lib/libm.a(lib_a-w_fmod.o)
 .ARM.attributes
                0x000000000000050e       0x2a /usr/lib//arm-none-eabi/lib/libm.a(lib_a-w_hypot.o)
 .ARM.attributes
                0x0000000000000538       0x2a /usr/lib//arm-none-eabi/lib/libm.a(lib_a-w_log.o)
 .ARM.attributes
                0x0000000000000562       0x2a /usr/lib//arm-none-eabi/lib/libm.a(lib_a-w_log10.o)
 .ARM.attributes
                0x000000000000058c       0x2a /usr/lib//arm-none-eabi/lib/libm.a(lib_a-w_pow.o)
 .ARM.attributes
                0x00000000000005b6       0x2a /usr/lib//arm-none-eabi/lib/libm.a(lib_a-w_sinh.o)
 .ARM.attributes
                0x00000000000005e0       0x2a /usr/lib//arm-none-eabi/lib/libm.a(lib_a-w_sqrt.o)
 .ARM.attributes
                0x000000000000060a       0x2a /usr/lib//arm-none-eabi/lib/libm.a(lib_a-e_acos.o)
 .ARM.attributes
                0x0000000000000634       0x2a /usr/lib//arm-none-eabi/lib/libm.a(lib_a-e_asin.o)
 .ARM.attributes
                0x000000000000065e       0x2a /usr/lib//arm-none-eabi/lib/libm.a(lib_a-e_atan2.o)
 .ARM.attributes
                0x0000000000000688       0x2a /usr/lib//arm-none-eabi/lib/libm.a(lib_a-e_cosh.o)
 .ARM.attributes
                0x00000000000006b2       0x2a /usr/lib//arm-none-eabi/lib/libm.a(lib_a-e_exp.o)
 .ARM.attributes
                0x00000000000006dc       0x2a /usr/lib//arm-none-eabi/lib/libm.a(lib_a-e_fmod.o)
 .ARM.attributes
                0x0000000000000706       0x2a /usr/lib//arm-none-eabi/lib/libm.a(lib_a-e_hypot.o)
 .ARM.attributes
                0x0000000000000730       0x2a /usr/lib//arm-none-eabi/lib/libm.a(lib_a-e_log.o)
 .ARM.attributes
                0x000000000000075a       0x2a /usr/lib//arm-none-eabi/lib/libm.a(lib_a-e_log10.o)
 .ARM.attributes
                0x0000000000000784       0x2a /usr/lib//arm-none-eabi/lib/libm.a(lib_a-e_pow.o)
 .ARM.attributes
                0x00000000000007ae       0x2a /usr/lib//arm-none-eabi/lib/libm.a(lib_a-e_rem_pio2.o)
 .ARM.attributes
                0x00000000000007d8       0x2a /usr/lib//arm-none-eabi/lib/libm.a(lib_a-e_sinh.o)
 .ARM.attributes
                0x0000000000000802       0x2a /usr/lib//arm-none-eabi/lib/libm.a(lib_a-e_sqrt.o)
 .ARM.attributes
                0x000000000000082c       0x2a /usr/lib//arm-none-eabi/lib/libm.a(lib_a-k_cos.o)
 .ARM.attributes
                0x0000000000000856       0x2a /usr/lib//arm-none-eabi/lib/libm.a(lib_a-k_rem_pio2.o)
 .ARM.attributes
                0x0000000000000880       0x2a /usr/lib//arm-none-eabi/lib/libm.a(lib_a-k_sin.o)
 .ARM.attributes
                0x00000000000008aa       0x2a /usr/lib//arm-none-eabi/lib/libm.a(lib_a-k_tan.o)
 .ARM.attributes
                0x00000000000008d4       0x2a /usr/lib//arm-none-eabi/lib/libm.a(lib_a-s_expm1.o)
 .ARM.attributes
                0x00000000000008fe       0x2a /usr/lib//arm-none-eabi/lib/libm.a(lib_a-s_finite.o)
 .ARM.attributes
                0x0000000000000928       0x30 /usr/lib//arm-none-eabi/lib/libm.a(lib_a-s_lib_ver.o)
 .ARM.attributes
                0x0000000000000958       0x2a /usr/lib//arm-none-eabi/lib/libm.a(lib_a-s_nan.o)
 .ARM.attributes
                0x0000000000000982       0x2a /usr/lib//arm-none-eabi/lib/libm.a(lib_a-s_rint.o)
 .ARM.attributes
                0x00000000000009ac       0x2a /usr/lib//arm-none-eabi/lib/libm.a(lib_a-s_scalbn.o)
 .ARM.attributes
                0x00000000000009d6       0x2a /usr/lib//arm-none-eabi/lib/libm.a(lib_a-math_err.o)
 .ARM.attributes
                0x0000000000000a00       0x2a /usr/lib//arm-none-eabi/lib/libc.a(lib_a-atof.o)
 .ARM.attributes
                0x0000000000000a2a       0x2a /usr/lib//arm-none-eabi/lib/libc.a(lib_a-atoi.o)
 .ARM.attributes
                0x0000000000000a54       0x2a /usr/lib//arm-none-eabi/lib/libc.a(lib_a-atol.o)
 .ARM.attributes
                0x0000000000000a7e       0x2a /usr/lib//arm-none-eabi/lib/libc.a(lib_a-bsearch.o)
 .ARM.attributes
                0x0000000000000aa8       0x30 /usr/lib//arm-none-eabi/lib/libc.a(lib_a-ctype_.o)
 .ARM.attributes
                0x0000000000000ad8       0x2a /usr/lib//arm-none-eabi/lib/libc.a(lib_a-errno.o)
 .ARM.attributes
                0x0000000000000b02       0x30 /usr/lib//arm-none-eabi/lib/libc.a(lib_a-impure.o)
 .ARM.attributes
                0x0000000000000b32       0x2a /usr/lib//arm-none-eabi/lib/libc.a(lib_a-malloc.o)
 .ARM.attributes
                0x0000000000000b5c       0x2a /usr/lib//arm-none-eabi/lib/libc.a(lib_a-mallocr.o)
 .ARM.attributes
                0x0000000000000b86       0x2a /usr/lib//arm-none-eabi/lib/libc.a(lib_a-memchr-stub.o)
 .ARM.attributes
                0x0000000000000bb0       0x2a /usr/lib//arm-none-eabi/lib/libc.a(lib_a-memcmp.o)
 .ARM.attributes
                0x0000000000000bda       0x2a /usr/lib//arm-none-eabi/lib/libc.a(lib_a-memcpy-stub.o)
 .ARM.attributes
                0x0000000000000c04       0x2a /usr/lib//arm-none-eabi/lib/libc.a(lib_a-memmove.o)
 .ARM.attributes
                0x0000000000000c2e       0x2a /usr/lib//arm-none-eabi/lib/libc.a(lib_a-memset.o)
 .ARM.attributes
                0x0000000000000c58       0x2a /usr/lib//arm-none-eabi/lib/libc.a(lib_a-mlock.o)
 .ARM.attributes
                0x0000000000000c82       0x2a /usr/lib//arm-none-eabi/lib/libc.a(lib_a-qsort.o)
 .ARM.attributes
                0x0000000000000cac       0x2a /usr/lib//arm-none-eabi/lib/libc.a(lib_a-rand.o)
 .ARM.attributes
                0x0000000000000cd6       0x2a /usr/lib//arm-none-eabi/lib/libc.a(lib_a-sbrkr.o)
 .ARM.attributes
                0x0000000000000d00       0x2a /usr/lib//arm-none-eabi/lib/libc.a(lib_a-sprintf.o)
 .ARM.attributes
                0x0000000000000d2a       0x2a /usr/lib//arm-none-eabi/lib/libc.a(lib_a-strcat.o)
 .ARM.attributes
                0x0000000000000d54       0x2a /usr/lib//arm-none-eabi/lib/libc.a(lib_a-strchr.o)
 .ARM.attributes
                0x0000000000000d7e       0x2a /usr/lib//arm-none-eabi/lib/libc.a(lib_a-strcpy.o)
 .ARM.attributes
                0x0000000000000da8       0x2a /usr/lib//arm-none-eabi/lib/libc.a(lib_a-strcspn.o)
 .ARM.attributes
                0x0000000000000dd2       0x2a /usr/lib//arm-none-eabi/lib/libc.a(lib_a-strncat.o)
 .ARM.attributes
                0x0000000000000dfc       0x2a /usr/lib//arm-none-eabi/lib/libc.a(lib_a-strncpy.o)
 .ARM.attributes
                0x0000000000000e26       0x2a /usr/lib//arm-none-eabi/lib/libc.a(lib_a-strrchr.o)
 .ARM.attributes
                0x0000000000000e50       0x2a /usr/lib//arm-none-eabi/lib/libc.a(lib_a-strspn.o)
 .ARM.attributes
                0x0000000000000e7a       0x2a /usr/lib//arm-none-eabi/lib/libc.a(lib_a-strstr.o)
 .ARM.attributes
                0x0000000000000ea4       0x2a /usr/lib//arm-none-eabi/lib/libc.a(lib_a-strtod.o)
 .ARM.attributes
                0x0000000000000ece       0x2a /usr/lib//arm-none-eabi/lib/libc.a(lib_a-strtok.o)
 .ARM.attributes
                0x0000000000000ef8       0x2a /usr/lib//arm-none-eabi/lib/libc.a(lib_a-strtok_r.o)
 .ARM.attributes
                0x0000000000000f22       0x2a /usr/lib//arm-none-eabi/lib/libc.a(lib_a-strtol.o)
 .ARM.attributes
                0x0000000000000f4c       0x2a /usr/lib//arm-none-eabi/lib/libc.a(lib_a-svfprintf.o)
 .ARM.attributes
                0x0000000000000f76       0x2a /usr/lib//arm-none-eabi/lib/libc.a(lib_a-vsprintf.o)
 .ARM.attributes
                0x0000000000000fa0       0x2a /usr/lib//arm-none-eabi/lib/libc.a(lib_a-dtoa.o)
 .ARM.attributes
                0x0000000000000fca       0x2a /usr/lib//arm-none-eabi/lib/libc.a(lib_a-freer.o)
 .ARM.attributes
                0x0000000000000ff4       0x2a /usr/lib//arm-none-eabi/lib/libc.a(lib_a-gdtoa-gethex.o)
 .ARM.attributes
                0x000000000000101e       0x2a /usr/lib//arm-none-eabi/lib/libc.a(lib_a-gdtoa-hexnan.o)
 .ARM.attributes
                0x0000000000001048       0x2a /usr/lib//arm-none-eabi/lib/libc.a(lib_a-lnumeric.o)
 .ARM.attributes
                0x0000000000001072       0x2a /usr/lib//arm-none-eabi/lib/libc.a(lib_a-locale.o)
 .ARM.attributes
                0x000000000000109c       0x2a /usr/lib//arm-none-eabi/lib/libc.a(lib_a-localeconv.o)
 .ARM.attributes
                0x00000000000010c6       0x2a /usr/lib//arm-none-eabi/lib/libc.a(lib_a-mbtowc_r.o)
 .ARM.attributes
                0x00000000000010f0       0x2a /usr/lib//arm-none-eabi/lib/libc.a(lib_a-mprec.o)
 .ARM.attributes
                0x000000000000111a       0x2a /usr/lib//arm-none-eabi/lib/libc.a(lib_a-reent.o)
 .ARM.attributes
                0x0000000000001144       0x2a /usr/lib//arm-none-eabi/lib/libc.a(lib_a-sf_nan.o)
 .ARM.attributes
                0x000000000000116e       0x1a /usr/lib//arm-none-eabi/lib/libc.a(lib_a-strcmp.o)
 .ARM.attributes
                0x0000000000001188       0x2a /usr/lib//arm-none-eabi/lib/libc.a(lib_a-strlen-stub.o)
 .ARM.attributes
                0x00000000000011b2       0x2a /usr/lib//arm-none-eabi/lib/libc.a(lib_a-strncmp.o)
 .ARM.attributes
                0x00000000000011dc       0x2a /usr/lib//arm-none-eabi/lib/libc.a(lib_a-strnlen.o)
 .ARM.attributes
                0x0000000000001206       0x2a /usr/lib//arm-none-eabi/lib/libc.a(lib_a-svfiprintf.o)
 .ARM.attributes
                0x0000000000001230       0x2a /usr/lib//arm-none-eabi/lib/libc.a(lib_a-wctomb_r.o)
 .ARM.attributes
                0x000000000000125a       0x2a /usr/lib//arm-none-eabi/lib/libc.a(lib_a-assert.o)
 .ARM.attributes
                0x0000000000001284       0x2a /usr/lib//arm-none-eabi/lib/libc.a(lib_a-callocr.o)
 .ARM.attributes
                0x00000000000012ae       0x2a /usr/lib//arm-none-eabi/lib/libc.a(lib_a-fiprintf.o)
 .ARM.attributes
                0x00000000000012d8       0x2a /usr/lib//arm-none-eabi/lib/libc.a(lib_a-reallocr.o)
 .ARM.attributes
                0x0000000000001302       0x2a /usr/lib//arm-none-eabi/lib/libc.a(lib_a-vfiprintf.o)
 .ARM.attributes
                0x000000000000132c       0x2a /usr/lib//arm-none-eabi/lib/libc.a(lib_a-wsetup.o)
 .ARM.attributes
                0x0000000000001356       0x2a /usr/lib//arm-none-eabi/lib/libc.a(lib_a-abort.o)
 .ARM.attributes
                0x0000000000001380       0x2a /usr/lib//arm-none-eabi/lib/libc.a(lib_a-fflush.o)
 .ARM.attributes
                0x00000000000013aa       0x2a /usr/lib//arm-none-eabi/lib/libc.a(lib_a-findfp.o)
 .ARM.attributes
                0x00000000000013d4       0x2a /usr/lib//arm-none-eabi/lib/libc.a(lib_a-fputwc.o)
 .ARM.attributes
                0x00000000000013fe       0x2a /usr/lib//arm-none-eabi/lib/libc.a(lib_a-fvwrite.o)
 .ARM.attributes
                0x0000000000001428       0x2a /usr/lib//arm-none-eabi/lib/libc.a(lib_a-fwalk.o)
 .ARM.attributes
                0x0000000000001452       0x2a /usr/lib//arm-none-eabi/lib/libc.a(lib_a-makebuf.o)
 .ARM.attributes
                0x000000000000147c       0x2a /usr/lib//arm-none-eabi/lib/libc.a(lib_a-signal.o)
 .ARM.attributes
                0x00000000000014a6       0x2a /usr/lib//arm-none-eabi/lib/libc.a(lib_a-signalr.o)
 .ARM.attributes
                0x00000000000014d0       0x2a /usr/lib//arm-none-eabi/lib/libc.a(lib_a-stdio.o)
 .ARM.attributes
                0x00000000000014fa       0x2a /usr/lib//arm-none-eabi/lib/libc.a(lib_a-wbuf.o)
 .ARM.attributes
                0x0000000000001524       0x2a /usr/lib//arm-none-eabi/lib/libc.a(lib_a-wcrtomb.o)
 .ARM.attributes
                0x000000000000154e       0x2a /usr/lib//arm-none-eabi/lib/libc.a(lib_a-writer.o)
 .ARM.attributes
                0x0000000000001578       0x2a /usr/lib//arm-none-eabi/lib/libc.a(lib_a-closer.o)
 .ARM.attributes
                0x00000000000015a2       0x2a /usr/lib//arm-none-eabi/lib/libc.a(lib_a-fclose.o)
 .ARM.attributes
                0x00000000000015cc       0x2a /usr/lib//arm-none-eabi/lib/libc.a(lib_a-fstatr.o)
 .ARM.attributes
                0x00000000000015f6       0x2a /usr/lib//arm-none-eabi/lib/libc.a(lib_a-isattyr.o)
 .ARM.attributes
                0x0000000000001620       0x2a /usr/lib//arm-none-eabi/lib/libc.a(lib_a-lseekr.o)
 .ARM.attributes
                0x000000000000164a       0x2a /usr/lib//arm-none-eabi/lib/libc.a(lib_a-readr.o)
 .ARM.attributes
                0x0000000000001674       0x2a /usr/lib//arm-none-eabi/lib/libnosys.a(close.o)
 .ARM.attributes
                0x000000000000169e       0x2a /usr/lib//arm-none-eabi/lib/libnosys.a(fstat.o)
 .ARM.attributes
                0x00000000000016c8       0x2a /usr/lib//arm-none-eabi/lib/libnosys.a(getpid.o)
 .ARM.attributes
                0x00000000000016f2       0x2a /usr/lib//arm-none-eabi/lib/libnosys.a(isatty.o)
 .ARM.attributes
                0x000000000000171c       0x2a /usr/lib//arm-none-eabi/lib/libnosys.a(kill.o)
 .ARM.attributes
                0x0000000000001746       0x2a /usr/lib//arm-none-eabi/lib/libnosys.a(lseek.o)
 .ARM.attributes
                0x0000000000001770       0x2a /usr/lib//arm-none-eabi/lib/libnosys.a(read.o)
 .ARM.attributes
                0x000000000000179a       0x2a /usr/lib//arm-none-eabi/lib/libnosys.a(sbrk.o)
 .ARM.attributes
                0x00000000000017c4       0x2a /usr/lib//arm-none-eabi/lib/libnosys.a(write.o)
 .ARM.attributes
                0x00000000000017ee       0x2a /usr/lib//arm-none-eabi/lib/libnosys.a(_exit.o)
 .ARM.attributes
                0x0000000000001818       0x1c /usr/lib/gcc/arm-none-eabi/10.3.1/libgcc.a(_arm_muldf3.o)
 .ARM.attributes
                0x0000000000001834       0x1c /usr/lib/gcc/arm-none-eabi/10.3.1/libgcc.a(_arm_mulsf3.o)
 .ARM.attributes
                0x0000000000001850       0x1c /usr/lib/gcc/arm-none-eabi/10.3.1/libgcc.a(_udivsi3.o)
 .ARM.attributes
                0x000000000000186c       0x1c /usr/lib/gcc/arm-none-eabi/10.3.1/libgcc.a(_divsi3.o)
 .ARM.attributes
                0x0000000000001888       0x1c /usr/lib/gcc/arm-none-eabi/10.3.1/libgcc.a(_dvmd_tls.o)
 .ARM.attributes
                0x00000000000018a4       0x1c /usr/lib/gcc/arm-none-eabi/10.3.1/libgcc.a(_arm_addsubdf3.o)
 .ARM.attributes
                0x00000000000018c0       0x1c /usr/lib/gcc/arm-none-eabi/10.3.1/libgcc.a(_arm_muldivdf3.o)
 .ARM.attributes
                0x00000000000018dc       0x1c /usr/lib/gcc/arm-none-eabi/10.3.1/libgcc.a(_arm_cmpdf2.o)
 .ARM.attributes
                0x00000000000018f8       0x1c /usr/lib/gcc/arm-none-eabi/10.3.1/libgcc.a(_arm_unorddf2.o)
 .ARM.attributes
                0x0000000000001914       0x1c /usr/lib/gcc/arm-none-eabi/10.3.1/libgcc.a(_arm_fixdfsi.o)
 .ARM.attributes
                0x0000000000001930       0x1c /usr/lib/gcc/arm-none-eabi/10.3.1/libgcc.a(_arm_fixunsdfsi.o)
 .ARM.attributes
                0x000000000000194c       0x1c /usr/lib/gcc/arm-none-eabi/10.3.1/libgcc.a(_arm_truncdfsf2.o)
 .ARM.attributes
                0x0000000000001968       0x1c /usr/lib/gcc/arm-none-eabi/10.3.1/libgcc.a(_arm_addsubsf3.o)
 .ARM.attributes
                0x0000000000001984       0x1c /usr/lib/gcc/arm-none-eabi/10.3.1/libgcc.a(_arm_muldivsf3.o)
 .ARM.attributes
                0x00000000000019a0       0x1c /usr/lib/gcc/arm-none-eabi/10.3.1/libgcc.a(_arm_cmpsf2.o)
 .ARM.attributes
                0x00000000000019bc       0x1c /usr/lib/gcc/arm-none-eabi/10.3.1/libgcc.a(_arm_unordsf2.o)
 .ARM.attributes
                0x00000000000019d8       0x1c /usr/lib/gcc/arm-none-eabi/10.3.1/libgcc.a(_arm_fixsfsi.o)
 .ARM.attributes
                0x00000000000019f4       0x1c /usr/lib/gcc/arm-none-eabi/10.3.1/libgcc.a(_arm_fixunssfsi.o)
 .ARM.attributes
                0x0000000000001a10       0x1c /usr/lib/gcc/arm-none-eabi/10.3.1/libgcc.a(_aeabi_ldivmod.o)
 .ARM.attributes
                0x0000000000001a2c       0x1c /usr/lib/gcc/arm-none-eabi/10.3.1/libgcc.a(_aeabi_uldivmod.o)
 .ARM.attributes
                0x0000000000001a48       0x2a /usr/lib/gcc/arm-none-eabi/10.3.1/libgcc.a(_fixsfdi.o)
 .ARM.attributes
                0x0000000000001a72       0x2a /usr/lib/gcc/arm-none-eabi/10.3.1/libgcc.a(_fixdfdi.o)
 .ARM.attributes
                0x0000000000001a9c       0x2a /usr/lib/gcc/arm-none-eabi/10.3.1/libgcc.a(_fixunssfdi.o)
 .ARM.attributes
                0x0000000000001ac6       0x2a /usr/lib/gcc/arm-none-eabi/10.3.1/libgcc.a(_fixunsdfdi.o)
 .ARM.attributes
                0x0000000000001af0       0x2a /usr/lib/gcc/arm-none-eabi/10.3.1/libgcc.a(_udivmoddi4.o)
 .ARM.attributes
                0x0000000000001b1a       0x1c /usr/lib/gcc/arm-none-eabi/10.3.1/libgcc.a(_clzdi2.o)
 .ARM.attributes
                0x0000000000001b36       0x1c /usr/lib/gcc/arm-none-eabi/10.3.1/libgcc.a(_clzsi2.o)

.comment        0x0000000000000000       0x33
 .comment       0x0000000000000000       0x33 main.o
                                         0x34 (size before relaxing)
 .comment       0x0000000000000033       0x34 lpc2388/_init.o
 .comment       0x0000000000000033       0x34 lpc2388/ff.o
 .comment       0x0000000000000033       0x34 lpc2388/ffsdmm.o
 .comment       0x0000000000000033       0x34 lpc2388/lcdlib2388.o
 .comment       0x0000000000000033       0x34 lpc2388/malloc2388.o
 .comment       0x0000000000000033       0x34 lpc2388/rom_func.o
 .comment       0x0000000000000033       0x34 lpc2388/tinymalloc.o
 .comment       0x0000000000000033       0x34 lpc2388/uart.o
 .comment       0x0000000000000033       0x34 lpc2388/vic_lpc23xx.o
 .comment       0x0000000000000033       0x34 lpc2388/xprintf.o
 .comment       0x0000000000000033       0x34 /usr/lib//arm-none-eabi/lib/libm.a(lib_a-s_atan.o)
 .comment       0x0000000000000033       0x34 /usr/lib//arm-none-eabi/lib/libm.a(lib_a-s_cbrt.o)
 .comment       0x0000000000000033       0x34 /usr/lib//arm-none-eabi/lib/libm.a(lib_a-s_ceil.o)
 .comment       0x0000000000000033       0x34 /usr/lib//arm-none-eabi/lib/libm.a(lib_a-s_cos.o)
 .comment       0x0000000000000033       0x34 /usr/lib//arm-none-eabi/lib/libm.a(lib_a-s_erf.o)
 .comment       0x0000000000000033       0x34 /usr/lib//arm-none-eabi/lib/libm.a(lib_a-s_fabs.o)
 .comment       0x0000000000000033       0x34 /usr/lib//arm-none-eabi/lib/libm.a(lib_a-s_floor.o)
 .comment       0x0000000000000033       0x34 /usr/lib//arm-none-eabi/lib/libm.a(lib_a-s_modf.o)
 .comment       0x0000000000000033       0x34 /usr/lib//arm-none-eabi/lib/libm.a(lib_a-s_round.o)
 .comment       0x0000000000000033       0x34 /usr/lib//arm-none-eabi/lib/libm.a(lib_a-s_sin.o)
 .comment       0x0000000000000033       0x34 /usr/lib//arm-none-eabi/lib/libm.a(lib_a-s_tan.o)
 .comment       0x0000000000000033       0x34 /usr/lib//arm-none-eabi/lib/libm.a(lib_a-s_tanh.o)
 .comment       0x0000000000000033       0x34 /usr/lib//arm-none-eabi/lib/libm.a(lib_a-s_trunc.o)
 .comment       0x0000000000000033       0x34 /usr/lib//arm-none-eabi/lib/libm.a(lib_a-w_acos.o)
 .comment       0x0000000000000033       0x34 /usr/lib//arm-none-eabi/lib/libm.a(lib_a-w_asin.o)
 .comment       0x0000000000000033       0x34 /usr/lib//arm-none-eabi/lib/libm.a(lib_a-w_atan2.o)
 .comment       0x0000000000000033       0x34 /usr/lib//arm-none-eabi/lib/libm.a(lib_a-w_cosh.o)
 .comment       0x0000000000000033       0x34 /usr/lib//arm-none-eabi/lib/libm.a(lib_a-w_exp.o)
 .comment       0x0000000000000033       0x34 /usr/lib//arm-none-eabi/lib/libm.a(lib_a-w_fmod.o)
 .comment       0x0000000000000033       0x34 /usr/lib//arm-none-eabi/lib/libm.a(lib_a-w_hypot.o)
 .comment       0x0000000000000033       0x34 /usr/lib//arm-none-eabi/lib/libm.a(lib_a-w_log.o)
 .comment       0x0000000000000033       0x34 /usr/lib//arm-none-eabi/lib/libm.a(lib_a-w_log10.o)
 .comment       0x0000000000000033       0x34 /usr/lib//arm-none-eabi/lib/libm.a(lib_a-w_pow.o)
 .comment       0x0000000000000033       0x34 /usr/lib//arm-none-eabi/lib/libm.a(lib_a-w_sinh.o)
 .comment       0x0000000000000033       0x34 /usr/lib//arm-none-eabi/lib/libm.a(lib_a-w_sqrt.o)
 .comment       0x0000000000000033       0x34 /usr/lib//arm-none-eabi/lib/libm.a(lib_a-e_acos.o)
 .comment       0x0000000000000033       0x34 /usr/lib//arm-none-eabi/lib/libm.a(lib_a-e_asin.o)
 .comment       0x0000000000000033       0x34 /usr/lib//arm-none-eabi/lib/libm.a(lib_a-e_atan2.o)
 .comment       0x0000000000000033       0x34 /usr/lib//arm-none-eabi/lib/libm.a(lib_a-e_cosh.o)
 .comment       0x0000000000000033       0x34 /usr/lib//arm-none-eabi/lib/libm.a(lib_a-e_exp.o)
 .comment       0x0000000000000033       0x34 /usr/lib//arm-none-eabi/lib/libm.a(lib_a-e_fmod.o)
 .comment       0x0000000000000033       0x34 /usr/lib//arm-none-eabi/lib/libm.a(lib_a-e_hypot.o)
 .comment       0x0000000000000033       0x34 /usr/lib//arm-none-eabi/lib/libm.a(lib_a-e_log.o)
 .comment       0x0000000000000033       0x34 /usr/lib//arm-none-eabi/lib/libm.a(lib_a-e_log10.o)
 .comment       0x0000000000000033       0x34 /usr/lib//arm-none-eabi/lib/libm.a(lib_a-e_pow.o)
 .comment       0x0000000000000033       0x34 /usr/lib//arm-none-eabi/lib/libm.a(lib_a-e_rem_pio2.o)
 .comment       0x0000000000000033       0x34 /usr/lib//arm-none-eabi/lib/libm.a(lib_a-e_sinh.o)
 .comment       0x0000000000000033       0x34 /usr/lib//arm-none-eabi/lib/libm.a(lib_a-e_sqrt.o)
 .comment       0x0000000000000033       0x34 /usr/lib//arm-none-eabi/lib/libm.a(lib_a-k_cos.o)
 .comment       0x0000000000000033       0x34 /usr/lib//arm-none-eabi/lib/libm.a(lib_a-k_rem_pio2.o)
 .comment       0x0000000000000033       0x34 /usr/lib//arm-none-eabi/lib/libm.a(lib_a-k_sin.o)
 .comment       0x0000000000000033       0x34 /usr/lib//arm-none-eabi/lib/libm.a(lib_a-k_tan.o)
 .comment       0x0000000000000033       0x34 /usr/lib//arm-none-eabi/lib/libm.a(lib_a-s_expm1.o)
 .comment       0x0000000000000033       0x34 /usr/lib//arm-none-eabi/lib/libm.a(lib_a-s_finite.o)
 .comment       0x0000000000000033       0x34 /usr/lib//arm-none-eabi/lib/libm.a(lib_a-s_lib_ver.o)
 .comment       0x0000000000000033       0x34 /usr/lib//arm-none-eabi/lib/libm.a(lib_a-s_nan.o)
 .comment       0x0000000000000033       0x34 /usr/lib//arm-none-eabi/lib/libm.a(lib_a-s_rint.o)
 .comment       0x0000000000000033       0x34 /usr/lib//arm-none-eabi/lib/libm.a(lib_a-s_scalbn.o)
 .comment       0x0000000000000033       0x34 /usr/lib//arm-none-eabi/lib/libm.a(lib_a-math_err.o)
 .comment       0x0000000000000033       0x34 /usr/lib//arm-none-eabi/lib/libc.a(lib_a-atof.o)
 .comment       0x0000000000000033       0x34 /usr/lib//arm-none-eabi/lib/libc.a(lib_a-atoi.o)
 .comment       0x0000000000000033       0x34 /usr/lib//arm-none-eabi/lib/libc.a(lib_a-atol.o)
 .comment       0x0000000000000033       0x34 /usr/lib//arm-none-eabi/lib/libc.a(lib_a-bsearch.o)
 .comment       0x0000000000000033       0x34 /usr/lib//arm-none-eabi/lib/libc.a(lib_a-ctype_.o)
 .comment       0x0000000000000033       0x34 /usr/lib//arm-none-eabi/lib/libc.a(lib_a-errno.o)
 .comment       0x0000000000000033       0x34 /usr/lib//arm-none-eabi/lib/libc.a(lib_a-impure.o)
 .comment       0x0000000000000033       0x34 /usr/lib//arm-none-eabi/lib/libc.a(lib_a-malloc.o)
 .comment       0x0000000000000033       0x34 /usr/lib//arm-none-eabi/lib/libc.a(lib_a-mallocr.o)
 .comment       0x0000000000000033       0x34 /usr/lib//arm-none-eabi/lib/libc.a(lib_a-memchr-stub.o)
 .comment       0x0000000000000033       0x34 /usr/lib//arm-none-eabi/lib/libc.a(lib_a-memcmp.o)
 .comment       0x0000000000000033       0x34 /usr/lib//arm-none-eabi/lib/libc.a(lib_a-memcpy-stub.o)
 .comment       0x0000000000000033       0x34 /usr/lib//arm-none-eabi/lib/libc.a(lib_a-memmove.o)
 .comment       0x0000000000000033       0x34 /usr/lib//arm-none-eabi/lib/libc.a(lib_a-memset.o)
 .comment       0x0000000000000033       0x34 /usr/lib//arm-none-eabi/lib/libc.a(lib_a-mlock.o)
 .comment       0x0000000000000033       0x34 /usr/lib//arm-none-eabi/lib/libc.a(lib_a-qsort.o)
 .comment       0x0000000000000033       0x34 /usr/lib//arm-none-eabi/lib/libc.a(lib_a-rand.o)
 .comment       0x0000000000000033       0x34 /usr/lib//arm-none-eabi/lib/libc.a(lib_a-sbrkr.o)
 .comment       0x0000000000000033       0x34 /usr/lib//arm-none-eabi/lib/libc.a(lib_a-sprintf.o)
 .comment       0x0000000000000033       0x34 /usr/lib//arm-none-eabi/lib/libc.a(lib_a-strcat.o)
 .comment       0x0000000000000033       0x34 /usr/lib//arm-none-eabi/lib/libc.a(lib_a-strchr.o)
 .comment       0x0000000000000033       0x34 /usr/lib//arm-none-eabi/lib/libc.a(lib_a-strcpy.o)
 .comment       0x0000000000000033       0x34 /usr/lib//arm-none-eabi/lib/libc.a(lib_a-strcspn.o)
 .comment       0x0000000000000033       0x34 /usr/lib//arm-none-eabi/lib/libc.a(lib_a-strncat.o)
 .comment       0x0000000000000033       0x34 /usr/lib//arm-none-eabi/lib/libc.a(lib_a-strncpy.o)
 .comment       0x0000000000000033       0x34 /usr/lib//arm-none-eabi/lib/libc.a(lib_a-strrchr.o)
 .comment       0x0000000000000033       0x34 /usr/lib//arm-none-eabi/lib/libc.a(lib_a-strspn.o)
 .comment       0x0000000000000033       0x34 /usr/lib//arm-none-eabi/lib/libc.a(lib_a-strstr.o)
 .comment       0x0000000000000033       0x34 /usr/lib//arm-none-eabi/lib/libc.a(lib_a-strtod.o)
 .comment       0x0000000000000033       0x34 /usr/lib//arm-none-eabi/lib/libc.a(lib_a-strtok.o)
 .comment       0x0000000000000033       0x34 /usr/lib//arm-none-eabi/lib/libc.a(lib_a-strtok_r.o)
 .comment       0x0000000000000033       0x34 /usr/lib//arm-none-eabi/lib/libc.a(lib_a-strtol.o)
 .comment       0x0000000000000033       0x34 /usr/lib//arm-none-eabi/lib/libc.a(lib_a-svfprintf.o)
 .comment       0x0000000000000033       0x34 /usr/lib//arm-none-eabi/lib/libc.a(lib_a-vsprintf.o)
 .comment       0x0000000000000033       0x34 /usr/lib//arm-none-eabi/lib/libc.a(lib_a-dtoa.o)
 .comment       0x0000000000000033       0x34 /usr/lib//arm-none-eabi/lib/libc.a(lib_a-freer.o)
 .comment       0x0000000000000033       0x34 /usr/lib//arm-none-eabi/lib/libc.a(lib_a-gdtoa-gethex.o)
 .comment       0x0000000000000033       0x34 /usr/lib//arm-none-eabi/lib/libc.a(lib_a-gdtoa-hexnan.o)
 .comment       0x0000000000000033       0x34 /usr/lib//arm-none-eabi/lib/libc.a(lib_a-lnumeric.o)
 .comment       0x0000000000000033       0x34 /usr/lib//arm-none-eabi/lib/libc.a(lib_a-locale.o)
 .comment       0x0000000000000033       0x34 /usr/lib//arm-none-eabi/lib/libc.a(lib_a-localeconv.o)
 .comment       0x0000000000000033       0x34 /usr/lib//arm-none-eabi/lib/libc.a(lib_a-mbtowc_r.o)
 .comment       0x0000000000000033       0x34 /usr/lib//arm-none-eabi/lib/libc.a(lib_a-mprec.o)
 .comment       0x0000000000000033       0x34 /usr/lib//arm-none-eabi/lib/libc.a(lib_a-reent.o)
 .comment       0x0000000000000033       0x34 /usr/lib//arm-none-eabi/lib/libc.a(lib_a-sf_nan.o)
 .comment       0x0000000000000033       0x34 /usr/lib//arm-none-eabi/lib/libc.a(lib_a-strlen-stub.o)
 .comment       0x0000000000000033       0x34 /usr/lib//arm-none-eabi/lib/libc.a(lib_a-strncmp.o)
 .comment       0x0000000000000033       0x34 /usr/lib//arm-none-eabi/lib/libc.a(lib_a-strnlen.o)
 .comment       0x0000000000000033       0x34 /usr/lib//arm-none-eabi/lib/libc.a(lib_a-svfiprintf.o)
 .comment       0x0000000000000033       0x34 /usr/lib//arm-none-eabi/lib/libc.a(lib_a-wctomb_r.o)
 .comment       0x0000000000000033       0x34 /usr/lib//arm-none-eabi/lib/libc.a(lib_a-assert.o)
 .comment       0x0000000000000033       0x34 /usr/lib//arm-none-eabi/lib/libc.a(lib_a-callocr.o)
 .comment       0x0000000000000033       0x34 /usr/lib//arm-none-eabi/lib/libc.a(lib_a-fiprintf.o)
 .comment       0x0000000000000033       0x34 /usr/lib//arm-none-eabi/lib/libc.a(lib_a-reallocr.o)
 .comment       0x0000000000000033       0x34 /usr/lib//arm-none-eabi/lib/libc.a(lib_a-vfiprintf.o)
 .comment       0x0000000000000033       0x34 /usr/lib//arm-none-eabi/lib/libc.a(lib_a-wsetup.o)
 .comment       0x0000000000000033       0x34 /usr/lib//arm-none-eabi/lib/libc.a(lib_a-abort.o)
 .comment       0x0000000000000033       0x34 /usr/lib//arm-none-eabi/lib/libc.a(lib_a-fflush.o)
 .comment       0x0000000000000033       0x34 /usr/lib//arm-none-eabi/lib/libc.a(lib_a-findfp.o)
 .comment       0x0000000000000033       0x34 /usr/lib//arm-none-eabi/lib/libc.a(lib_a-fputwc.o)
 .comment       0x0000000000000033       0x34 /usr/lib//arm-none-eabi/lib/libc.a(lib_a-fvwrite.o)
 .comment       0x0000000000000033       0x34 /usr/lib//arm-none-eabi/lib/libc.a(lib_a-fwalk.o)
 .comment       0x0000000000000033       0x34 /usr/lib//arm-none-eabi/lib/libc.a(lib_a-makebuf.o)
 .comment       0x0000000000000033       0x34 /usr/lib//arm-none-eabi/lib/libc.a(lib_a-signal.o)
 .comment       0x0000000000000033       0x34 /usr/lib//arm-none-eabi/lib/libc.a(lib_a-signalr.o)
 .comment       0x0000000000000033       0x34 /usr/lib//arm-none-eabi/lib/libc.a(lib_a-stdio.o)
 .comment       0x0000000000000033       0x34 /usr/lib//arm-none-eabi/lib/libc.a(lib_a-wbuf.o)
 .comment       0x0000000000000033       0x34 /usr/lib//arm-none-eabi/lib/libc.a(lib_a-wcrtomb.o)
 .comment       0x0000000000000033       0x34 /usr/lib//arm-none-eabi/lib/libc.a(lib_a-writer.o)
 .comment       0x0000000000000033       0x34 /usr/lib//arm-none-eabi/lib/libc.a(lib_a-closer.o)
 .comment       0x0000000000000033       0x34 /usr/lib//arm-none-eabi/lib/libc.a(lib_a-fclose.o)
 .comment       0x0000000000000033       0x34 /usr/lib//arm-none-eabi/lib/libc.a(lib_a-fstatr.o)
 .comment       0x0000000000000033       0x34 /usr/lib//arm-none-eabi/lib/libc.a(lib_a-isattyr.o)
 .comment       0x0000000000000033       0x34 /usr/lib//arm-none-eabi/lib/libc.a(lib_a-lseekr.o)
 .comment       0x0000000000000033       0x34 /usr/lib//arm-none-eabi/lib/libc.a(lib_a-readr.o)
 .comment       0x0000000000000033       0x34 /usr/lib//arm-none-eabi/lib/libnosys.a(close.o)
 .comment       0x0000000000000033       0x34 /usr/lib//arm-none-eabi/lib/libnosys.a(fstat.o)
 .comment       0x0000000000000033       0x34 /usr/lib//arm-none-eabi/lib/libnosys.a(getpid.o)
 .comment       0x0000000000000033       0x34 /usr/lib//arm-none-eabi/lib/libnosys.a(isatty.o)
 .comment       0x0000000000000033       0x34 /usr/lib//arm-none-eabi/lib/libnosys.a(kill.o)
 .comment       0x0000000000000033       0x34 /usr/lib//arm-none-eabi/lib/libnosys.a(lseek.o)
 .comment       0x0000000000000033       0x34 /usr/lib//arm-none-eabi/lib/libnosys.a(read.o)
 .comment       0x0000000000000033       0x34 /usr/lib//arm-none-eabi/lib/libnosys.a(sbrk.o)
 .comment       0x0000000000000033       0x34 /usr/lib//arm-none-eabi/lib/libnosys.a(write.o)
 .comment       0x0000000000000033       0x34 /usr/lib//arm-none-eabi/lib/libnosys.a(_exit.o)
 .comment       0x0000000000000033       0x34 /usr/lib/gcc/arm-none-eabi/10.3.1/libgcc.a(_fixsfdi.o)
 .comment       0x0000000000000033       0x34 /usr/lib/gcc/arm-none-eabi/10.3.1/libgcc.a(_fixdfdi.o)
 .comment       0x0000000000000033       0x34 /usr/lib/gcc/arm-none-eabi/10.3.1/libgcc.a(_fixunssfdi.o)
 .comment       0x0000000000000033       0x34 /usr/lib/gcc/arm-none-eabi/10.3.1/libgcc.a(_fixunsdfdi.o)
 .comment       0x0000000000000033       0x34 /usr/lib/gcc/arm-none-eabi/10.3.1/libgcc.a(_udivmoddi4.o)

.debug_info     0x0000000000000000    0x3e5d6
 .debug_info    0x0000000000000000      0x10e main.o
 .debug_info    0x000000000000010e       0xae lpc2388/_init.o
 .debug_info    0x00000000000001bc     0x3157 lpc2388/ff.o
 .debug_info    0x0000000000003313      0x698 lpc2388/ffsdmm.o
 .debug_info    0x00000000000039ab      0x2b4 lpc2388/lcdlib2388.o
 .debug_info    0x0000000000003c5f      0x25d lpc2388/malloc2388.o
 .debug_info    0x0000000000003ebc      0x456 lpc2388/rom_func.o
 .debug_info    0x0000000000004312      0x2f7 lpc2388/tinymalloc.o
 .debug_info    0x0000000000004609      0x120 lpc2388/uart.o
 .debug_info    0x0000000000004729      0x1d5 lpc2388/vic_lpc23xx.o
 .debug_info    0x00000000000048fe      0x563 lpc2388/xprintf.o
 .debug_info    0x0000000000004e61      0x47b /usr/lib//arm-none-eabi/lib/libm.a(lib_a-s_atan.o)
 .debug_info    0x00000000000052dc      0x40f /usr/lib//arm-none-eabi/lib/libm.a(lib_a-s_cbrt.o)
 .debug_info    0x00000000000056eb      0x222 /usr/lib//arm-none-eabi/lib/libm.a(lib_a-s_ceil.o)
 .debug_info    0x000000000000590d      0x217 /usr/lib//arm-none-eabi/lib/libm.a(lib_a-s_cos.o)
 .debug_info    0x0000000000005b24     0x11c6 /usr/lib//arm-none-eabi/lib/libm.a(lib_a-s_erf.o)
 .debug_info    0x0000000000006cea      0x151 /usr/lib//arm-none-eabi/lib/libm.a(lib_a-s_fabs.o)
 .debug_info    0x0000000000006e3b      0x222 /usr/lib//arm-none-eabi/lib/libm.a(lib_a-s_floor.o)
 .debug_info    0x000000000000705d      0x2f5 /usr/lib//arm-none-eabi/lib/libm.a(lib_a-s_modf.o)
 .debug_info    0x0000000000007352      0x1fd /usr/lib//arm-none-eabi/lib/libm.a(lib_a-s_round.o)
 .debug_info    0x000000000000754f      0x229 /usr/lib//arm-none-eabi/lib/libm.a(lib_a-s_sin.o)
 .debug_info    0x0000000000007778      0x1ec /usr/lib//arm-none-eabi/lib/libm.a(lib_a-s_tan.o)
 .debug_info    0x0000000000007964      0x2a0 /usr/lib//arm-none-eabi/lib/libm.a(lib_a-s_tanh.o)
 .debug_info    0x0000000000007c04      0x1e1 /usr/lib//arm-none-eabi/lib/libm.a(lib_a-s_trunc.o)
 .debug_info    0x0000000000007de5      0x18a /usr/lib//arm-none-eabi/lib/libm.a(lib_a-w_acos.o)
 .debug_info    0x0000000000007f6f      0x18a /usr/lib//arm-none-eabi/lib/libm.a(lib_a-w_asin.o)
 .debug_info    0x00000000000080f9       0xf9 /usr/lib//arm-none-eabi/lib/libm.a(lib_a-w_atan2.o)
 .debug_info    0x00000000000081f2      0x16a /usr/lib//arm-none-eabi/lib/libm.a(lib_a-w_cosh.o)
 .debug_info    0x000000000000835c      0x1a2 /usr/lib//arm-none-eabi/lib/libm.a(lib_a-w_exp.o)
 .debug_info    0x00000000000084fe      0x187 /usr/lib//arm-none-eabi/lib/libm.a(lib_a-w_fmod.o)
 .debug_info    0x0000000000008685      0x179 /usr/lib//arm-none-eabi/lib/libm.a(lib_a-w_hypot.o)
 .debug_info    0x00000000000087fe      0x190 /usr/lib//arm-none-eabi/lib/libm.a(lib_a-w_log.o)
 .debug_info    0x000000000000898e      0x190 /usr/lib//arm-none-eabi/lib/libm.a(lib_a-w_log10.o)
 .debug_info    0x0000000000008b1e      0x24b /usr/lib//arm-none-eabi/lib/libm.a(lib_a-w_pow.o)
 .debug_info    0x0000000000008d69      0x161 /usr/lib//arm-none-eabi/lib/libm.a(lib_a-w_sinh.o)
 .debug_info    0x0000000000008eca      0x167 /usr/lib//arm-none-eabi/lib/libm.a(lib_a-w_sqrt.o)
 .debug_info    0x0000000000009031      0x68c /usr/lib//arm-none-eabi/lib/libm.a(lib_a-e_acos.o)
 .debug_info    0x00000000000096bd      0x63f /usr/lib//arm-none-eabi/lib/libm.a(lib_a-e_asin.o)
 .debug_info    0x0000000000009cfc      0x33b /usr/lib//arm-none-eabi/lib/libm.a(lib_a-e_atan2.o)
 .debug_info    0x000000000000a037      0x2dd /usr/lib//arm-none-eabi/lib/libm.a(lib_a-e_cosh.o)
 .debug_info    0x000000000000a314      0x5b6 /usr/lib//arm-none-eabi/lib/libm.a(lib_a-e_exp.o)
 .debug_info    0x000000000000a8ca      0x2cc /usr/lib//arm-none-eabi/lib/libm.a(lib_a-e_fmod.o)
 .debug_info    0x000000000000ab96      0x50e /usr/lib//arm-none-eabi/lib/libm.a(lib_a-e_hypot.o)
 .debug_info    0x000000000000b0a4      0x5a0 /usr/lib//arm-none-eabi/lib/libm.a(lib_a-e_log.o)
 .debug_info    0x000000000000b644      0x2e9 /usr/lib//arm-none-eabi/lib/libm.a(lib_a-e_log10.o)
 .debug_info    0x000000000000b92d      0xc77 /usr/lib//arm-none-eabi/lib/libm.a(lib_a-e_pow.o)
 .debug_info    0x000000000000c5a4      0x658 /usr/lib//arm-none-eabi/lib/libm.a(lib_a-e_rem_pio2.o)
 .debug_info    0x000000000000cbfc      0x312 /usr/lib//arm-none-eabi/lib/libm.a(lib_a-e_sinh.o)
 .debug_info    0x000000000000cf0e      0x2c6 /usr/lib//arm-none-eabi/lib/libm.a(lib_a-e_sqrt.o)
 .debug_info    0x000000000000d1d4      0x3f4 /usr/lib//arm-none-eabi/lib/libm.a(lib_a-k_cos.o)
 .debug_info    0x000000000000d5c8      0x5c1 /usr/lib//arm-none-eabi/lib/libm.a(lib_a-k_rem_pio2.o)
 .debug_info    0x000000000000db89      0x32e /usr/lib//arm-none-eabi/lib/libm.a(lib_a-k_sin.o)
 .debug_info    0x000000000000deb7      0x586 /usr/lib//arm-none-eabi/lib/libm.a(lib_a-k_tan.o)
 .debug_info    0x000000000000e43d      0x6f9 /usr/lib//arm-none-eabi/lib/libm.a(lib_a-s_expm1.o)
 .debug_info    0x000000000000eb36      0x143 /usr/lib//arm-none-eabi/lib/libm.a(lib_a-s_finite.o)
 .debug_info    0x000000000000ec79       0xbb /usr/lib//arm-none-eabi/lib/libm.a(lib_a-s_lib_ver.o)
 .debug_info    0x000000000000ed34       0xd2 /usr/lib//arm-none-eabi/lib/libm.a(lib_a-s_nan.o)
 .debug_info    0x000000000000ee06      0x29e /usr/lib//arm-none-eabi/lib/libm.a(lib_a-s_rint.o)
 .debug_info    0x000000000000f0a4      0x276 /usr/lib//arm-none-eabi/lib/libm.a(lib_a-s_scalbn.o)
 .debug_info    0x000000000000f31a      0x422 /usr/lib//arm-none-eabi/lib/libm.a(lib_a-math_err.o)
 .debug_info    0x000000000000f73c       0xdb /usr/lib//arm-none-eabi/lib/libc.a(lib_a-atof.o)
 .debug_info    0x000000000000f817      0x9ae /usr/lib//arm-none-eabi/lib/libc.a(lib_a-atoi.o)
 .debug_info    0x00000000000101c5      0x9ae /usr/lib//arm-none-eabi/lib/libc.a(lib_a-atol.o)
 .debug_info    0x0000000000010b73      0x195 /usr/lib//arm-none-eabi/lib/libc.a(lib_a-bsearch.o)
 .debug_info    0x0000000000010d08       0xb8 /usr/lib//arm-none-eabi/lib/libc.a(lib_a-ctype_.o)
 .debug_info    0x0000000000010dc0      0x914 /usr/lib//arm-none-eabi/lib/libc.a(lib_a-errno.o)
 .debug_info    0x00000000000116d4      0x92a /usr/lib//arm-none-eabi/lib/libc.a(lib_a-impure.o)
 .debug_info    0x0000000000011ffe      0x998 /usr/lib//arm-none-eabi/lib/libc.a(lib_a-malloc.o)
 .debug_info    0x0000000000012996      0xea7 /usr/lib//arm-none-eabi/lib/libc.a(lib_a-mallocr.o)
 .debug_info    0x000000000001383d      0x155 /usr/lib//arm-none-eabi/lib/libc.a(lib_a-memchr-stub.o)
 .debug_info    0x0000000000013992      0x138 /usr/lib//arm-none-eabi/lib/libc.a(lib_a-memcmp.o)
 .debug_info    0x0000000000013aca      0x15c /usr/lib//arm-none-eabi/lib/libc.a(lib_a-memcpy-stub.o)
 .debug_info    0x0000000000013c26      0x152 /usr/lib//arm-none-eabi/lib/libc.a(lib_a-memmove.o)
 .debug_info    0x0000000000013d78      0x13d /usr/lib//arm-none-eabi/lib/libc.a(lib_a-memset.o)
 .debug_info    0x0000000000013eb5      0x942 /usr/lib//arm-none-eabi/lib/libc.a(lib_a-mlock.o)
 .debug_info    0x00000000000147f7     0x10d7 /usr/lib//arm-none-eabi/lib/libc.a(lib_a-qsort.o)
 .debug_info    0x00000000000158ce      0x95c /usr/lib//arm-none-eabi/lib/libc.a(lib_a-rand.o)
 .debug_info    0x000000000001622a      0x98e /usr/lib//arm-none-eabi/lib/libc.a(lib_a-sbrkr.o)
 .debug_info    0x0000000000016bb8      0xa8c /usr/lib//arm-none-eabi/lib/libc.a(lib_a-sprintf.o)
 .debug_info    0x0000000000017644      0x125 /usr/lib//arm-none-eabi/lib/libc.a(lib_a-strcat.o)
 .debug_info    0x0000000000017769      0x13a /usr/lib//arm-none-eabi/lib/libc.a(lib_a-strchr.o)
 .debug_info    0x00000000000178a3       0xc4 /usr/lib//arm-none-eabi/lib/libc.a(lib_a-strcpy.o)
 .debug_info    0x0000000000017967       0xf2 /usr/lib//arm-none-eabi/lib/libc.a(lib_a-strcspn.o)
 .debug_info    0x0000000000017a59      0x126 /usr/lib//arm-none-eabi/lib/libc.a(lib_a-strncat.o)
 .debug_info    0x0000000000017b7f      0x153 /usr/lib//arm-none-eabi/lib/libc.a(lib_a-strncpy.o)
 .debug_info    0x0000000000017cd2      0x107 /usr/lib//arm-none-eabi/lib/libc.a(lib_a-strrchr.o)
 .debug_info    0x0000000000017dd9       0xf2 /usr/lib//arm-none-eabi/lib/libc.a(lib_a-strspn.o)
 .debug_info    0x0000000000017ecb      0x746 /usr/lib//arm-none-eabi/lib/libc.a(lib_a-strstr.o)
 .debug_info    0x0000000000018611     0x1ead /usr/lib//arm-none-eabi/lib/libc.a(lib_a-strtod.o)
 .debug_info    0x000000000001a4be      0x980 /usr/lib//arm-none-eabi/lib/libc.a(lib_a-strtok.o)
 .debug_info    0x000000000001ae3e      0x1b1 /usr/lib//arm-none-eabi/lib/libc.a(lib_a-strtok_r.o)
 .debug_info    0x000000000001afef     0x1081 /usr/lib//arm-none-eabi/lib/libc.a(lib_a-strtol.o)
 .debug_info    0x000000000001c070     0x1971 /usr/lib//arm-none-eabi/lib/libc.a(lib_a-svfprintf.o)
 .debug_info    0x000000000001d9e1      0xae5 /usr/lib//arm-none-eabi/lib/libc.a(lib_a-vsprintf.o)
 .debug_info    0x000000000001e4c6     0x1a3c /usr/lib//arm-none-eabi/lib/libc.a(lib_a-dtoa.o)
 .debug_info    0x000000000001ff02      0xce5 /usr/lib//arm-none-eabi/lib/libc.a(lib_a-freer.o)
 .debug_info    0x0000000000020be7     0x149b /usr/lib//arm-none-eabi/lib/libc.a(lib_a-gdtoa-gethex.o)
 .debug_info    0x0000000000022082      0x3e8 /usr/lib//arm-none-eabi/lib/libc.a(lib_a-gdtoa-hexnan.o)
 .debug_info    0x000000000002246a      0xc46 /usr/lib//arm-none-eabi/lib/libc.a(lib_a-lnumeric.o)
 .debug_info    0x00000000000230b0      0xe0a /usr/lib//arm-none-eabi/lib/libc.a(lib_a-locale.o)
 .debug_info    0x0000000000023eba      0xc3e /usr/lib//arm-none-eabi/lib/libc.a(lib_a-localeconv.o)
 .debug_info    0x0000000000024af8      0xcc3 /usr/lib//arm-none-eabi/lib/libc.a(lib_a-mbtowc_r.o)
 .debug_info    0x00000000000257bb     0x20bc /usr/lib//arm-none-eabi/lib/libc.a(lib_a-mprec.o)
 .debug_info    0x0000000000027877      0xbe1 /usr/lib//arm-none-eabi/lib/libc.a(lib_a-reent.o)
 .debug_info    0x0000000000028458       0xce /usr/lib//arm-none-eabi/lib/libc.a(lib_a-sf_nan.o)
 .debug_info    0x0000000000028526       0x26 /usr/lib//arm-none-eabi/lib/libc.a(lib_a-strcmp.o)
 .debug_info    0x000000000002854c       0xbc /usr/lib//arm-none-eabi/lib/libc.a(lib_a-strlen-stub.o)
 .debug_info    0x0000000000028608      0x110 /usr/lib//arm-none-eabi/lib/libc.a(lib_a-strncmp.o)
 .debug_info    0x0000000000028718       0xe2 /usr/lib//arm-none-eabi/lib/libc.a(lib_a-strnlen.o)
 .debug_info    0x00000000000287fa     0x1368 /usr/lib//arm-none-eabi/lib/libc.a(lib_a-svfiprintf.o)
 .debug_info    0x0000000000029b62      0xc8c /usr/lib//arm-none-eabi/lib/libc.a(lib_a-wctomb_r.o)
 .debug_info    0x000000000002a7ee      0xa75 /usr/lib//arm-none-eabi/lib/libc.a(lib_a-assert.o)
 .debug_info    0x000000000002b263      0xa81 /usr/lib//arm-none-eabi/lib/libc.a(lib_a-callocr.o)
 .debug_info    0x000000000002bce4      0xa5f /usr/lib//arm-none-eabi/lib/libc.a(lib_a-fiprintf.o)
 .debug_info    0x000000000002c743      0xdb7 /usr/lib//arm-none-eabi/lib/libc.a(lib_a-reallocr.o)
 .debug_info    0x000000000002d4fa     0x192a /usr/lib//arm-none-eabi/lib/libc.a(lib_a-vfiprintf.o)
 .debug_info    0x000000000002ee24      0x9c2 /usr/lib//arm-none-eabi/lib/libc.a(lib_a-wsetup.o)
 .debug_info    0x000000000002f7e6       0xcb /usr/lib//arm-none-eabi/lib/libc.a(lib_a-abort.o)
 .debug_info    0x000000000002f8b1      0xbec /usr/lib//arm-none-eabi/lib/libc.a(lib_a-fflush.o)
 .debug_info    0x000000000003049d      0xf74 /usr/lib//arm-none-eabi/lib/libc.a(lib_a-findfp.o)
 .debug_info    0x0000000000031411      0xc19 /usr/lib//arm-none-eabi/lib/libc.a(lib_a-fputwc.o)
 .debug_info    0x000000000003202a      0xcbb /usr/lib//arm-none-eabi/lib/libc.a(lib_a-fvwrite.o)
 .debug_info    0x0000000000032ce5      0xa66 /usr/lib//arm-none-eabi/lib/libc.a(lib_a-fwalk.o)
 .debug_info    0x000000000003374b      0xdd6 /usr/lib//arm-none-eabi/lib/libc.a(lib_a-makebuf.o)
 .debug_info    0x0000000000034521      0xf25 /usr/lib//arm-none-eabi/lib/libc.a(lib_a-signal.o)
 .debug_info    0x0000000000035446      0x9df /usr/lib//arm-none-eabi/lib/libc.a(lib_a-signalr.o)
 .debug_info    0x0000000000035e25      0xc27 /usr/lib//arm-none-eabi/lib/libc.a(lib_a-stdio.o)
 .debug_info    0x0000000000036a4c      0xa5f /usr/lib//arm-none-eabi/lib/libc.a(lib_a-wbuf.o)
 .debug_info    0x00000000000374ab      0xd27 /usr/lib//arm-none-eabi/lib/libc.a(lib_a-wcrtomb.o)
 .debug_info    0x00000000000381d2      0x9c0 /usr/lib//arm-none-eabi/lib/libc.a(lib_a-writer.o)
 .debug_info    0x0000000000038b92      0x96b /usr/lib//arm-none-eabi/lib/libc.a(lib_a-closer.o)
 .debug_info    0x00000000000394fd      0xb4a /usr/lib//arm-none-eabi/lib/libc.a(lib_a-fclose.o)
 .debug_info    0x000000000003a047      0xb83 /usr/lib//arm-none-eabi/lib/libc.a(lib_a-fstatr.o)
 .debug_info    0x000000000003abca      0x96b /usr/lib//arm-none-eabi/lib/libc.a(lib_a-isattyr.o)
 .debug_info    0x000000000003b535      0x9a1 /usr/lib//arm-none-eabi/lib/libc.a(lib_a-lseekr.o)
 .debug_info    0x000000000003bed6      0x9b9 /usr/lib//arm-none-eabi/lib/libc.a(lib_a-readr.o)
 .debug_info    0x000000000003c88f       0xb1 /usr/lib//arm-none-eabi/lib/libnosys.a(close.o)
 .debug_info    0x000000000003c940      0x2cc /usr/lib//arm-none-eabi/lib/libnosys.a(fstat.o)
 .debug_info    0x000000000003cc0c       0x9c /usr/lib//arm-none-eabi/lib/libnosys.a(getpid.o)
 .debug_info    0x000000000003cca8       0xb1 /usr/lib//arm-none-eabi/lib/libnosys.a(isatty.o)
 .debug_info    0x000000000003cd59       0xbf /usr/lib//arm-none-eabi/lib/libnosys.a(kill.o)
 .debug_info    0x000000000003ce18       0xd3 /usr/lib//arm-none-eabi/lib/libnosys.a(lseek.o)
 .debug_info    0x000000000003ceeb       0xd9 /usr/lib//arm-none-eabi/lib/libnosys.a(read.o)
 .debug_info    0x000000000003cfc4       0x9d /usr/lib//arm-none-eabi/lib/libnosys.a(sbrk.o)
 .debug_info    0x000000000003d061       0xd9 /usr/lib//arm-none-eabi/lib/libnosys.a(write.o)
 .debug_info    0x000000000003d13a       0xa3 /usr/lib//arm-none-eabi/lib/libnosys.a(_exit.o)
 .debug_info    0x000000000003d1dd       0x26 /usr/lib/gcc/arm-none-eabi/10.3.1/libgcc.a(_arm_muldf3.o)
 .debug_info    0x000000000003d203       0x26 /usr/lib/gcc/arm-none-eabi/10.3.1/libgcc.a(_arm_mulsf3.o)
 .debug_info    0x000000000003d229       0x26 /usr/lib/gcc/arm-none-eabi/10.3.1/libgcc.a(_udivsi3.o)
 .debug_info    0x000000000003d24f       0x26 /usr/lib/gcc/arm-none-eabi/10.3.1/libgcc.a(_divsi3.o)
 .debug_info    0x000000000003d275       0x26 /usr/lib/gcc/arm-none-eabi/10.3.1/libgcc.a(_dvmd_tls.o)
 .debug_info    0x000000000003d29b       0x26 /usr/lib/gcc/arm-none-eabi/10.3.1/libgcc.a(_arm_addsubdf3.o)
 .debug_info    0x000000000003d2c1       0x26 /usr/lib/gcc/arm-none-eabi/10.3.1/libgcc.a(_arm_muldivdf3.o)
 .debug_info    0x000000000003d2e7       0x26 /usr/lib/gcc/arm-none-eabi/10.3.1/libgcc.a(_arm_cmpdf2.o)
 .debug_info    0x000000000003d30d       0x26 /usr/lib/gcc/arm-none-eabi/10.3.1/libgcc.a(_arm_unorddf2.o)
 .debug_info    0x000000000003d333       0x26 /usr/lib/gcc/arm-none-eabi/10.3.1/libgcc.a(_arm_fixdfsi.o)
 .debug_info    0x000000000003d359       0x26 /usr/lib/gcc/arm-none-eabi/10.3.1/libgcc.a(_arm_fixunsdfsi.o)
 .debug_info    0x000000000003d37f       0x26 /usr/lib/gcc/arm-none-eabi/10.3.1/libgcc.a(_arm_truncdfsf2.o)
 .debug_info    0x000000000003d3a5       0x26 /usr/lib/gcc/arm-none-eabi/10.3.1/libgcc.a(_arm_addsubsf3.o)
 .debug_info    0x000000000003d3cb       0x26 /usr/lib/gcc/arm-none-eabi/10.3.1/libgcc.a(_arm_muldivsf3.o)
 .debug_info    0x000000000003d3f1       0x26 /usr/lib/gcc/arm-none-eabi/10.3.1/libgcc.a(_arm_cmpsf2.o)
 .debug_info    0x000000000003d417       0x26 /usr/lib/gcc/arm-none-eabi/10.3.1/libgcc.a(_arm_unordsf2.o)
 .debug_info    0x000000000003d43d       0x26 /usr/lib/gcc/arm-none-eabi/10.3.1/libgcc.a(_arm_fixsfsi.o)
 .debug_info    0x000000000003d463       0x26 /usr/lib/gcc/arm-none-eabi/10.3.1/libgcc.a(_arm_fixunssfsi.o)
 .debug_info    0x000000000003d489       0x26 /usr/lib/gcc/arm-none-eabi/10.3.1/libgcc.a(_aeabi_ldivmod.o)
 .debug_info    0x000000000003d4af       0x26 /usr/lib/gcc/arm-none-eabi/10.3.1/libgcc.a(_aeabi_uldivmod.o)
 .debug_info    0x000000000003d4d5      0x30f /usr/lib/gcc/arm-none-eabi/10.3.1/libgcc.a(_fixsfdi.o)
 .debug_info    0x000000000003d7e4      0x303 /usr/lib/gcc/arm-none-eabi/10.3.1/libgcc.a(_fixdfdi.o)
 .debug_info    0x000000000003dae7      0x39e /usr/lib/gcc/arm-none-eabi/10.3.1/libgcc.a(_fixunssfdi.o)
 .debug_info    0x000000000003de85      0x366 /usr/lib/gcc/arm-none-eabi/10.3.1/libgcc.a(_fixunsdfdi.o)
 .debug_info    0x000000000003e1eb      0x39f /usr/lib/gcc/arm-none-eabi/10.3.1/libgcc.a(_udivmoddi4.o)
 .debug_info    0x000000000003e58a       0x26 /usr/lib/gcc/arm-none-eabi/10.3.1/libgcc.a(_clzdi2.o)
 .debug_info    0x000000000003e5b0       0x26 /usr/lib/gcc/arm-none-eabi/10.3.1/libgcc.a(_clzsi2.o)

.debug_abbrev   0x0000000000000000     0xef85
 .debug_abbrev  0x0000000000000000       0xb5 main.o
 .debug_abbrev  0x00000000000000b5       0x70 lpc2388/_init.o
 .debug_abbrev  0x0000000000000125      0x34b lpc2388/ff.o
 .debug_abbrev  0x0000000000000470      0x209 lpc2388/ffsdmm.o
 .debug_abbrev  0x0000000000000679      0x14a lpc2388/lcdlib2388.o
 .debug_abbrev  0x00000000000007c3      0x110 lpc2388/malloc2388.o
 .debug_abbrev  0x00000000000008d3      0x1ab lpc2388/rom_func.o
 .debug_abbrev  0x0000000000000a7e      0x118 lpc2388/tinymalloc.o
 .debug_abbrev  0x0000000000000b96       0xc6 lpc2388/uart.o
 .debug_abbrev  0x0000000000000c5c      0x12d lpc2388/vic_lpc23xx.o
 .debug_abbrev  0x0000000000000d89      0x200 lpc2388/xprintf.o
 .debug_abbrev  0x0000000000000f89      0x171 /usr/lib//arm-none-eabi/lib/libm.a(lib_a-s_atan.o)
 .debug_abbrev  0x00000000000010fa      0x15a /usr/lib//arm-none-eabi/lib/libm.a(lib_a-s_cbrt.o)
 .debug_abbrev  0x0000000000001254      0x128 /usr/lib//arm-none-eabi/lib/libm.a(lib_a-s_ceil.o)
 .debug_abbrev  0x000000000000137c      0x15e /usr/lib//arm-none-eabi/lib/libm.a(lib_a-s_cos.o)
 .debug_abbrev  0x00000000000014da      0x1ac /usr/lib//arm-none-eabi/lib/libm.a(lib_a-s_erf.o)
 .debug_abbrev  0x0000000000001686       0xe6 /usr/lib//arm-none-eabi/lib/libm.a(lib_a-s_fabs.o)
 .debug_abbrev  0x000000000000176c      0x128 /usr/lib//arm-none-eabi/lib/libm.a(lib_a-s_floor.o)
 .debug_abbrev  0x0000000000001894      0x167 /usr/lib//arm-none-eabi/lib/libm.a(lib_a-s_modf.o)
 .debug_abbrev  0x00000000000019fb      0x12a /usr/lib//arm-none-eabi/lib/libm.a(lib_a-s_round.o)
 .debug_abbrev  0x0000000000001b25      0x169 /usr/lib//arm-none-eabi/lib/libm.a(lib_a-s_sin.o)
 .debug_abbrev  0x0000000000001c8e      0x169 /usr/lib//arm-none-eabi/lib/libm.a(lib_a-s_tan.o)
 .debug_abbrev  0x0000000000001df7      0x14b /usr/lib//arm-none-eabi/lib/libm.a(lib_a-s_tanh.o)
 .debug_abbrev  0x0000000000001f42      0x12a /usr/lib//arm-none-eabi/lib/libm.a(lib_a-s_trunc.o)
 .debug_abbrev  0x000000000000206c      0x10c /usr/lib//arm-none-eabi/lib/libm.a(lib_a-w_acos.o)
 .debug_abbrev  0x0000000000002178      0x10c /usr/lib//arm-none-eabi/lib/libm.a(lib_a-w_asin.o)
 .debug_abbrev  0x0000000000002284       0x86 /usr/lib//arm-none-eabi/lib/libm.a(lib_a-w_atan2.o)
 .debug_abbrev  0x000000000000230a       0xee /usr/lib//arm-none-eabi/lib/libm.a(lib_a-w_cosh.o)
 .debug_abbrev  0x00000000000023f8      0x106 /usr/lib//arm-none-eabi/lib/libm.a(lib_a-w_exp.o)
 .debug_abbrev  0x00000000000024fe       0xee /usr/lib//arm-none-eabi/lib/libm.a(lib_a-w_fmod.o)
 .debug_abbrev  0x00000000000025ec       0xe1 /usr/lib//arm-none-eabi/lib/libm.a(lib_a-w_hypot.o)
 .debug_abbrev  0x00000000000026cd      0x10c /usr/lib//arm-none-eabi/lib/libm.a(lib_a-w_log.o)
 .debug_abbrev  0x00000000000027d9      0x10c /usr/lib//arm-none-eabi/lib/libm.a(lib_a-w_log10.o)
 .debug_abbrev  0x00000000000028e5      0x101 /usr/lib//arm-none-eabi/lib/libm.a(lib_a-w_pow.o)
 .debug_abbrev  0x00000000000029e6       0xee /usr/lib//arm-none-eabi/lib/libm.a(lib_a-w_sinh.o)
 .debug_abbrev  0x0000000000002ad4       0xee /usr/lib//arm-none-eabi/lib/libm.a(lib_a-w_sqrt.o)
 .debug_abbrev  0x0000000000002bc2      0x159 /usr/lib//arm-none-eabi/lib/libm.a(lib_a-e_acos.o)
 .debug_abbrev  0x0000000000002d1b      0x16d /usr/lib//arm-none-eabi/lib/libm.a(lib_a-e_asin.o)
 .debug_abbrev  0x0000000000002e88      0x162 /usr/lib//arm-none-eabi/lib/libm.a(lib_a-e_atan2.o)
 .debug_abbrev  0x0000000000002fea      0x154 /usr/lib//arm-none-eabi/lib/libm.a(lib_a-e_cosh.o)
 .debug_abbrev  0x000000000000313e      0x186 /usr/lib//arm-none-eabi/lib/libm.a(lib_a-e_exp.o)
 .debug_abbrev  0x00000000000032c4      0x142 /usr/lib//arm-none-eabi/lib/libm.a(lib_a-e_fmod.o)
 .debug_abbrev  0x0000000000003406      0x144 /usr/lib//arm-none-eabi/lib/libm.a(lib_a-e_hypot.o)
 .debug_abbrev  0x000000000000354a      0x148 /usr/lib//arm-none-eabi/lib/libm.a(lib_a-e_log.o)
 .debug_abbrev  0x0000000000003692      0x14a /usr/lib//arm-none-eabi/lib/libm.a(lib_a-e_log10.o)
 .debug_abbrev  0x00000000000037dc      0x1da /usr/lib//arm-none-eabi/lib/libm.a(lib_a-e_pow.o)
 .debug_abbrev  0x00000000000039b6      0x1b2 /usr/lib//arm-none-eabi/lib/libm.a(lib_a-e_rem_pio2.o)
 .debug_abbrev  0x0000000000003b68      0x163 /usr/lib//arm-none-eabi/lib/libm.a(lib_a-e_sinh.o)
 .debug_abbrev  0x0000000000003ccb      0x155 /usr/lib//arm-none-eabi/lib/libm.a(lib_a-e_sqrt.o)
 .debug_abbrev  0x0000000000003e20      0x133 /usr/lib//arm-none-eabi/lib/libm.a(lib_a-k_cos.o)
 .debug_abbrev  0x0000000000003f53      0x170 /usr/lib//arm-none-eabi/lib/libm.a(lib_a-k_rem_pio2.o)
 .debug_abbrev  0x00000000000040c3      0x138 /usr/lib//arm-none-eabi/lib/libm.a(lib_a-k_sin.o)
 .debug_abbrev  0x00000000000041fb      0x190 /usr/lib//arm-none-eabi/lib/libm.a(lib_a-k_tan.o)
 .debug_abbrev  0x000000000000438b      0x1ba /usr/lib//arm-none-eabi/lib/libm.a(lib_a-s_expm1.o)
 .debug_abbrev  0x0000000000004545       0xdd /usr/lib//arm-none-eabi/lib/libm.a(lib_a-s_finite.o)
 .debug_abbrev  0x0000000000004622       0x6f /usr/lib//arm-none-eabi/lib/libm.a(lib_a-s_lib_ver.o)
 .debug_abbrev  0x0000000000004691       0x7b /usr/lib//arm-none-eabi/lib/libm.a(lib_a-s_nan.o)
 .debug_abbrev  0x000000000000470c      0x15d /usr/lib//arm-none-eabi/lib/libm.a(lib_a-s_rint.o)
 .debug_abbrev  0x0000000000004869      0x142 /usr/lib//arm-none-eabi/lib/libm.a(lib_a-s_scalbn.o)
 .debug_abbrev  0x00000000000049ab      0x160 /usr/lib//arm-none-eabi/lib/libm.a(lib_a-math_err.o)
 .debug_abbrev  0x0000000000004b0b       0x96 /usr/lib//arm-none-eabi/lib/libc.a(lib_a-atof.o)
 .debug_abbrev  0x0000000000004ba1      0x1eb /usr/lib//arm-none-eabi/lib/libc.a(lib_a-atoi.o)
 .debug_abbrev  0x0000000000004d8c      0x1eb /usr/lib//arm-none-eabi/lib/libc.a(lib_a-atol.o)
 .debug_abbrev  0x0000000000004f77       0xde /usr/lib//arm-none-eabi/lib/libc.a(lib_a-bsearch.o)
 .debug_abbrev  0x0000000000005055       0x62 /usr/lib//arm-none-eabi/lib/libc.a(lib_a-ctype_.o)
 .debug_abbrev  0x00000000000050b7      0x1be /usr/lib//arm-none-eabi/lib/libc.a(lib_a-errno.o)
 .debug_abbrev  0x0000000000005275      0x1b8 /usr/lib//arm-none-eabi/lib/libc.a(lib_a-impure.o)
 .debug_abbrev  0x000000000000542d      0x21a /usr/lib//arm-none-eabi/lib/libc.a(lib_a-malloc.o)
 .debug_abbrev  0x0000000000005647      0x2f6 /usr/lib//arm-none-eabi/lib/libc.a(lib_a-mallocr.o)
 .debug_abbrev  0x000000000000593d       0xc3 /usr/lib//arm-none-eabi/lib/libc.a(lib_a-memchr-stub.o)
 .debug_abbrev  0x0000000000005a00       0x8d /usr/lib//arm-none-eabi/lib/libc.a(lib_a-memcmp.o)
 .debug_abbrev  0x0000000000005a8d       0xc7 /usr/lib//arm-none-eabi/lib/libc.a(lib_a-memcpy-stub.o)
 .debug_abbrev  0x0000000000005b54       0xc0 /usr/lib//arm-none-eabi/lib/libc.a(lib_a-memmove.o)
 .debug_abbrev  0x0000000000005c14       0xb4 /usr/lib//arm-none-eabi/lib/libc.a(lib_a-memset.o)
 .debug_abbrev  0x0000000000005cc8      0x1f0 /usr/lib//arm-none-eabi/lib/libc.a(lib_a-mlock.o)
 .debug_abbrev  0x0000000000005eb8      0x2c4 /usr/lib//arm-none-eabi/lib/libc.a(lib_a-qsort.o)
 .debug_abbrev  0x000000000000617c      0x1ff /usr/lib//arm-none-eabi/lib/libc.a(lib_a-rand.o)
 .debug_abbrev  0x000000000000637b      0x23d /usr/lib//arm-none-eabi/lib/libc.a(lib_a-sbrkr.o)
 .debug_abbrev  0x00000000000065b8      0x27a /usr/lib//arm-none-eabi/lib/libc.a(lib_a-sprintf.o)
 .debug_abbrev  0x0000000000006832       0xc4 /usr/lib//arm-none-eabi/lib/libc.a(lib_a-strcat.o)
 .debug_abbrev  0x00000000000068f6       0x94 /usr/lib//arm-none-eabi/lib/libc.a(lib_a-strchr.o)
 .debug_abbrev  0x000000000000698a       0x7b /usr/lib//arm-none-eabi/lib/libc.a(lib_a-strcpy.o)
 .debug_abbrev  0x0000000000006a05       0x8d /usr/lib//arm-none-eabi/lib/libc.a(lib_a-strcspn.o)
 .debug_abbrev  0x0000000000006a92       0xb1 /usr/lib//arm-none-eabi/lib/libc.a(lib_a-strncat.o)
 .debug_abbrev  0x0000000000006b43       0xbb /usr/lib//arm-none-eabi/lib/libc.a(lib_a-strncpy.o)
 .debug_abbrev  0x0000000000006bfe       0xb7 /usr/lib//arm-none-eabi/lib/libc.a(lib_a-strrchr.o)
 .debug_abbrev  0x0000000000006cb5       0x8d /usr/lib//arm-none-eabi/lib/libc.a(lib_a-strspn.o)
 .debug_abbrev  0x0000000000006d42      0x22d /usr/lib//arm-none-eabi/lib/libc.a(lib_a-strstr.o)
 .debug_abbrev  0x0000000000006f6f      0x4c2 /usr/lib//arm-none-eabi/lib/libc.a(lib_a-strtod.o)
 .debug_abbrev  0x0000000000007431      0x22d /usr/lib//arm-none-eabi/lib/libc.a(lib_a-strtok.o)
 .debug_abbrev  0x000000000000765e      0x112 /usr/lib//arm-none-eabi/lib/libc.a(lib_a-strtok_r.o)
 .debug_abbrev  0x0000000000007770      0x318 /usr/lib//arm-none-eabi/lib/libc.a(lib_a-strtol.o)
 .debug_abbrev  0x0000000000007a88      0x3db /usr/lib//arm-none-eabi/lib/libc.a(lib_a-svfprintf.o)
 .debug_abbrev  0x0000000000007e63      0x2ab /usr/lib//arm-none-eabi/lib/libc.a(lib_a-vsprintf.o)
 .debug_abbrev  0x000000000000810e      0x345 /usr/lib//arm-none-eabi/lib/libc.a(lib_a-dtoa.o)
 .debug_abbrev  0x0000000000008453      0x2a1 /usr/lib//arm-none-eabi/lib/libc.a(lib_a-freer.o)
 .debug_abbrev  0x00000000000086f4      0x3cf /usr/lib//arm-none-eabi/lib/libc.a(lib_a-gdtoa-gethex.o)
 .debug_abbrev  0x0000000000008ac3      0x1b5 /usr/lib//arm-none-eabi/lib/libc.a(lib_a-gdtoa-hexnan.o)
 .debug_abbrev  0x0000000000008c78      0x21a /usr/lib//arm-none-eabi/lib/libc.a(lib_a-lnumeric.o)
 .debug_abbrev  0x0000000000008e92      0x2f5 /usr/lib//arm-none-eabi/lib/libc.a(lib_a-locale.o)
 .debug_abbrev  0x0000000000009187      0x26a /usr/lib//arm-none-eabi/lib/libc.a(lib_a-localeconv.o)
 .debug_abbrev  0x00000000000093f1      0x244 /usr/lib//arm-none-eabi/lib/libc.a(lib_a-mbtowc_r.o)
 .debug_abbrev  0x0000000000009635      0x4bc /usr/lib//arm-none-eabi/lib/libc.a(lib_a-mprec.o)
 .debug_abbrev  0x0000000000009af1      0x2d0 /usr/lib//arm-none-eabi/lib/libc.a(lib_a-reent.o)
 .debug_abbrev  0x0000000000009dc1       0x7b /usr/lib//arm-none-eabi/lib/libc.a(lib_a-sf_nan.o)
 .debug_abbrev  0x0000000000009e3c       0x14 /usr/lib//arm-none-eabi/lib/libc.a(lib_a-strcmp.o)
 .debug_abbrev  0x0000000000009e50       0x79 /usr/lib//arm-none-eabi/lib/libc.a(lib_a-strlen-stub.o)
 .debug_abbrev  0x0000000000009ec9       0x8f /usr/lib//arm-none-eabi/lib/libc.a(lib_a-strncmp.o)
 .debug_abbrev  0x0000000000009f58       0x8d /usr/lib//arm-none-eabi/lib/libc.a(lib_a-strnlen.o)
 .debug_abbrev  0x0000000000009fe5      0x2fa /usr/lib//arm-none-eabi/lib/libc.a(lib_a-svfiprintf.o)
 .debug_abbrev  0x000000000000a2df      0x240 /usr/lib//arm-none-eabi/lib/libc.a(lib_a-wctomb_r.o)
 .debug_abbrev  0x000000000000a51f      0x22a /usr/lib//arm-none-eabi/lib/libc.a(lib_a-assert.o)
 .debug_abbrev  0x000000000000a749      0x241 /usr/lib//arm-none-eabi/lib/libc.a(lib_a-callocr.o)
 .debug_abbrev  0x000000000000a98a      0x255 /usr/lib//arm-none-eabi/lib/libc.a(lib_a-fiprintf.o)
 .debug_abbrev  0x000000000000abdf      0x270 /usr/lib//arm-none-eabi/lib/libc.a(lib_a-reallocr.o)
 .debug_abbrev  0x000000000000ae4f      0x430 /usr/lib//arm-none-eabi/lib/libc.a(lib_a-vfiprintf.o)
 .debug_abbrev  0x000000000000b27f      0x246 /usr/lib//arm-none-eabi/lib/libc.a(lib_a-wsetup.o)
 .debug_abbrev  0x000000000000b4c5       0x80 /usr/lib//arm-none-eabi/lib/libc.a(lib_a-abort.o)
 .debug_abbrev  0x000000000000b545      0x347 /usr/lib//arm-none-eabi/lib/libc.a(lib_a-fflush.o)
 .debug_abbrev  0x000000000000b88c      0x417 /usr/lib//arm-none-eabi/lib/libc.a(lib_a-findfp.o)
 .debug_abbrev  0x000000000000bca3      0x331 /usr/lib//arm-none-eabi/lib/libc.a(lib_a-fputwc.o)
 .debug_abbrev  0x000000000000bfd4      0x276 /usr/lib//arm-none-eabi/lib/libc.a(lib_a-fvwrite.o)
 .debug_abbrev  0x000000000000c24a      0x1fe /usr/lib//arm-none-eabi/lib/libc.a(lib_a-fwalk.o)
 .debug_abbrev  0x000000000000c448      0x2f7 /usr/lib//arm-none-eabi/lib/libc.a(lib_a-makebuf.o)
 .debug_abbrev  0x000000000000c73f      0x331 /usr/lib//arm-none-eabi/lib/libc.a(lib_a-signal.o)
 .debug_abbrev  0x000000000000ca70      0x230 /usr/lib//arm-none-eabi/lib/libc.a(lib_a-signalr.o)
 .debug_abbrev  0x000000000000cca0      0x242 /usr/lib//arm-none-eabi/lib/libc.a(lib_a-stdio.o)
 .debug_abbrev  0x000000000000cee2      0x286 /usr/lib//arm-none-eabi/lib/libc.a(lib_a-wbuf.o)
 .debug_abbrev  0x000000000000d168      0x254 /usr/lib//arm-none-eabi/lib/libc.a(lib_a-wcrtomb.o)
 .debug_abbrev  0x000000000000d3bc      0x217 /usr/lib//arm-none-eabi/lib/libc.a(lib_a-writer.o)
 .debug_abbrev  0x000000000000d5d3      0x212 /usr/lib//arm-none-eabi/lib/libc.a(lib_a-closer.o)
 .debug_abbrev  0x000000000000d7e5      0x2f1 /usr/lib//arm-none-eabi/lib/libc.a(lib_a-fclose.o)
 .debug_abbrev  0x000000000000dad6      0x226 /usr/lib//arm-none-eabi/lib/libc.a(lib_a-fstatr.o)
 .debug_abbrev  0x000000000000dcfc      0x212 /usr/lib//arm-none-eabi/lib/libc.a(lib_a-isattyr.o)
 .debug_abbrev  0x000000000000df0e      0x226 /usr/lib//arm-none-eabi/lib/libc.a(lib_a-lseekr.o)
 .debug_abbrev  0x000000000000e134      0x212 /usr/lib//arm-none-eabi/lib/libc.a(lib_a-readr.o)
 .debug_abbrev  0x000000000000e346       0x6d /usr/lib//arm-none-eabi/lib/libnosys.a(close.o)
 .debug_abbrev  0x000000000000e3b3       0xcc /usr/lib//arm-none-eabi/lib/libnosys.a(fstat.o)
 .debug_abbrev  0x000000000000e47f       0x59 /usr/lib//arm-none-eabi/lib/libnosys.a(getpid.o)
 .debug_abbrev  0x000000000000e4d8       0x6d /usr/lib//arm-none-eabi/lib/libnosys.a(isatty.o)
 .debug_abbrev  0x000000000000e545       0x7e /usr/lib//arm-none-eabi/lib/libnosys.a(kill.o)
 .debug_abbrev  0x000000000000e5c3       0x92 /usr/lib//arm-none-eabi/lib/libnosys.a(lseek.o)
 .debug_abbrev  0x000000000000e655       0x9b /usr/lib//arm-none-eabi/lib/libnosys.a(read.o)
 .debug_abbrev  0x000000000000e6f0       0xa2 /usr/lib//arm-none-eabi/lib/libnosys.a(sbrk.o)
 .debug_abbrev  0x000000000000e792       0x9b /usr/lib//arm-none-eabi/lib/libnosys.a(write.o)
 .debug_abbrev  0x000000000000e82d       0x6a /usr/lib//arm-none-eabi/lib/libnosys.a(_exit.o)
 .debug_abbrev  0x000000000000e897       0x14 /usr/lib/gcc/arm-none-eabi/10.3.1/libgcc.a(_arm_muldf3.o)
 .debug_abbrev  0x000000000000e8ab       0x14 /usr/lib/gcc/arm-none-eabi/10.3.1/libgcc.a(_arm_mulsf3.o)
 .debug_abbrev  0x000000000000e8bf       0x14 /usr/lib/gcc/arm-none-eabi/10.3.1/libgcc.a(_udivsi3.o)
 .debug_abbrev  0x000000000000e8d3       0x14 /usr/lib/gcc/arm-none-eabi/10.3.1/libgcc.a(_divsi3.o)
 .debug_abbrev  0x000000000000e8e7       0x14 /usr/lib/gcc/arm-none-eabi/10.3.1/libgcc.a(_dvmd_tls.o)
 .debug_abbrev  0x000000000000e8fb       0x14 /usr/lib/gcc/arm-none-eabi/10.3.1/libgcc.a(_arm_addsubdf3.o)
 .debug_abbrev  0x000000000000e90f       0x14 /usr/lib/gcc/arm-none-eabi/10.3.1/libgcc.a(_arm_muldivdf3.o)
 .debug_abbrev  0x000000000000e923       0x14 /usr/lib/gcc/arm-none-eabi/10.3.1/libgcc.a(_arm_cmpdf2.o)
 .debug_abbrev  0x000000000000e937       0x14 /usr/lib/gcc/arm-none-eabi/10.3.1/libgcc.a(_arm_unorddf2.o)
 .debug_abbrev  0x000000000000e94b       0x14 /usr/lib/gcc/arm-none-eabi/10.3.1/libgcc.a(_arm_fixdfsi.o)
 .debug_abbrev  0x000000000000e95f       0x14 /usr/lib/gcc/arm-none-eabi/10.3.1/libgcc.a(_arm_fixunsdfsi.o)
 .debug_abbrev  0x000000000000e973       0x14 /usr/lib/gcc/arm-none-eabi/10.3.1/libgcc.a(_arm_truncdfsf2.o)
 .debug_abbrev  0x000000000000e987       0x14 /usr/lib/gcc/arm-none-eabi/10.3.1/libgcc.a(_arm_addsubsf3.o)
 .debug_abbrev  0x000000000000e99b       0x14 /usr/lib/gcc/arm-none-eabi/10.3.1/libgcc.a(_arm_muldivsf3.o)
 .debug_abbrev  0x000000000000e9af       0x14 /usr/lib/gcc/arm-none-eabi/10.3.1/libgcc.a(_arm_cmpsf2.o)
 .debug_abbrev  0x000000000000e9c3       0x14 /usr/lib/gcc/arm-none-eabi/10.3.1/libgcc.a(_arm_unordsf2.o)
 .debug_abbrev  0x000000000000e9d7       0x14 /usr/lib/gcc/arm-none-eabi/10.3.1/libgcc.a(_arm_fixsfsi.o)
 .debug_abbrev  0x000000000000e9eb       0x14 /usr/lib/gcc/arm-none-eabi/10.3.1/libgcc.a(_arm_fixunssfsi.o)
 .debug_abbrev  0x000000000000e9ff       0x14 /usr/lib/gcc/arm-none-eabi/10.3.1/libgcc.a(_aeabi_ldivmod.o)
 .debug_abbrev  0x000000000000ea13       0x14 /usr/lib/gcc/arm-none-eabi/10.3.1/libgcc.a(_aeabi_uldivmod.o)
 .debug_abbrev  0x000000000000ea27      0x119 /usr/lib/gcc/arm-none-eabi/10.3.1/libgcc.a(_fixsfdi.o)
 .debug_abbrev  0x000000000000eb40      0x100 /usr/lib/gcc/arm-none-eabi/10.3.1/libgcc.a(_fixdfdi.o)
 .debug_abbrev  0x000000000000ec40      0x101 /usr/lib/gcc/arm-none-eabi/10.3.1/libgcc.a(_fixunssfdi.o)
 .debug_abbrev  0x000000000000ed41      0x101 /usr/lib/gcc/arm-none-eabi/10.3.1/libgcc.a(_fixunsdfdi.o)
 .debug_abbrev  0x000000000000ee42      0x11b /usr/lib/gcc/arm-none-eabi/10.3.1/libgcc.a(_udivmoddi4.o)
 .debug_abbrev  0x000000000000ef5d       0x14 /usr/lib/gcc/arm-none-eabi/10.3.1/libgcc.a(_clzdi2.o)
 .debug_abbrev  0x000000000000ef71       0x14 /usr/lib/gcc/arm-none-eabi/10.3.1/libgcc.a(_clzsi2.o)

.debug_loc      0x0000000000000000    0x2cdfa
 .debug_loc     0x0000000000000000       0x20 main.o
 .debug_loc     0x0000000000000020       0x2c lpc2388/_init.o
 .debug_loc     0x000000000000004c     0x4849 lpc2388/ff.o
 .debug_loc     0x0000000000004895      0x94e lpc2388/ffsdmm.o
 .debug_loc     0x00000000000051e3      0x3a9 lpc2388/lcdlib2388.o
 .debug_loc     0x000000000000558c      0x1f0 lpc2388/malloc2388.o
 .debug_loc     0x000000000000577c      0x2a8 lpc2388/rom_func.o
 .debug_loc     0x0000000000005a24      0x490 lpc2388/tinymalloc.o
 .debug_loc     0x0000000000005eb4       0x55 lpc2388/uart.o
 .debug_loc     0x0000000000005f09       0xef lpc2388/vic_lpc23xx.o
 .debug_loc     0x0000000000005ff8      0xafb lpc2388/xprintf.o
 .debug_loc     0x0000000000006af3      0x37a /usr/lib//arm-none-eabi/lib/libm.a(lib_a-s_atan.o)
 .debug_loc     0x0000000000006e6d      0x326 /usr/lib//arm-none-eabi/lib/libm.a(lib_a-s_cbrt.o)
 .debug_loc     0x0000000000007193      0x19d /usr/lib//arm-none-eabi/lib/libm.a(lib_a-s_ceil.o)
 .debug_loc     0x0000000000007330       0xef /usr/lib//arm-none-eabi/lib/libm.a(lib_a-s_cos.o)
 .debug_loc     0x000000000000741f      0xcdd /usr/lib//arm-none-eabi/lib/libm.a(lib_a-s_erf.o)
 .debug_loc     0x00000000000080fc       0x1a /usr/lib//arm-none-eabi/lib/libm.a(lib_a-s_fabs.o)
 .debug_loc     0x0000000000008116      0x1aa /usr/lib//arm-none-eabi/lib/libm.a(lib_a-s_floor.o)
 .debug_loc     0x00000000000082c0      0x449 /usr/lib//arm-none-eabi/lib/libm.a(lib_a-s_modf.o)
 .debug_loc     0x0000000000008709      0x25f /usr/lib//arm-none-eabi/lib/libm.a(lib_a-s_round.o)
 .debug_loc     0x0000000000008968       0xef /usr/lib//arm-none-eabi/lib/libm.a(lib_a-s_sin.o)
 .debug_loc     0x0000000000008a57       0xef /usr/lib//arm-none-eabi/lib/libm.a(lib_a-s_tan.o)
 .debug_loc     0x0000000000008b46      0x2f2 /usr/lib//arm-none-eabi/lib/libm.a(lib_a-s_tanh.o)
 .debug_loc     0x0000000000008e38      0x25c /usr/lib//arm-none-eabi/lib/libm.a(lib_a-s_trunc.o)
 .debug_loc     0x0000000000009094       0x58 /usr/lib//arm-none-eabi/lib/libm.a(lib_a-w_acos.o)
 .debug_loc     0x00000000000090ec       0x58 /usr/lib//arm-none-eabi/lib/libm.a(lib_a-w_asin.o)
 .debug_loc     0x0000000000009144       0x58 /usr/lib//arm-none-eabi/lib/libm.a(lib_a-w_atan2.o)
 .debug_loc     0x000000000000919c       0x58 /usr/lib//arm-none-eabi/lib/libm.a(lib_a-w_cosh.o)
 .debug_loc     0x00000000000091f4       0x6a /usr/lib//arm-none-eabi/lib/libm.a(lib_a-w_exp.o)
 .debug_loc     0x000000000000925e       0x84 /usr/lib//arm-none-eabi/lib/libm.a(lib_a-w_fmod.o)
 .debug_loc     0x00000000000092e2       0x84 /usr/lib//arm-none-eabi/lib/libm.a(lib_a-w_hypot.o)
 .debug_loc     0x0000000000009366       0x58 /usr/lib//arm-none-eabi/lib/libm.a(lib_a-w_log.o)
 .debug_loc     0x00000000000093be       0x58 /usr/lib//arm-none-eabi/lib/libm.a(lib_a-w_log10.o)
 .debug_loc     0x0000000000009416       0xcc /usr/lib//arm-none-eabi/lib/libm.a(lib_a-w_pow.o)
 .debug_loc     0x00000000000094e2       0x58 /usr/lib//arm-none-eabi/lib/libm.a(lib_a-w_sinh.o)
 .debug_loc     0x000000000000953a       0x58 /usr/lib//arm-none-eabi/lib/libm.a(lib_a-w_sqrt.o)
 .debug_loc     0x0000000000009592      0x7b0 /usr/lib//arm-none-eabi/lib/libm.a(lib_a-e_acos.o)
 .debug_loc     0x0000000000009d42      0x4e3 /usr/lib//arm-none-eabi/lib/libm.a(lib_a-e_asin.o)
 .debug_loc     0x000000000000a225      0x541 /usr/lib//arm-none-eabi/lib/libm.a(lib_a-e_atan2.o)
 .debug_loc     0x000000000000a766      0x1f0 /usr/lib//arm-none-eabi/lib/libm.a(lib_a-e_cosh.o)
 .debug_loc     0x000000000000a956      0x448 /usr/lib//arm-none-eabi/lib/libm.a(lib_a-e_exp.o)
 .debug_loc     0x000000000000ad9e      0x5ea /usr/lib//arm-none-eabi/lib/libm.a(lib_a-e_fmod.o)
 .debug_loc     0x000000000000b388      0x7cd /usr/lib//arm-none-eabi/lib/libm.a(lib_a-e_hypot.o)
 .debug_loc     0x000000000000bb55      0x85b /usr/lib//arm-none-eabi/lib/libm.a(lib_a-e_log.o)
 .debug_loc     0x000000000000c3b0      0x256 /usr/lib//arm-none-eabi/lib/libm.a(lib_a-e_log10.o)
 .debug_loc     0x000000000000c606      0xff6 /usr/lib//arm-none-eabi/lib/libm.a(lib_a-e_pow.o)
 .debug_loc     0x000000000000d5fc      0x54d /usr/lib//arm-none-eabi/lib/libm.a(lib_a-e_rem_pio2.o)
 .debug_loc     0x000000000000db49      0x280 /usr/lib//arm-none-eabi/lib/libm.a(lib_a-e_sinh.o)
 .debug_loc     0x000000000000ddc9      0x498 /usr/lib//arm-none-eabi/lib/libm.a(lib_a-e_sqrt.o)
 .debug_loc     0x000000000000e261      0x2a0 /usr/lib//arm-none-eabi/lib/libm.a(lib_a-k_cos.o)
 .debug_loc     0x000000000000e501      0xc1f /usr/lib//arm-none-eabi/lib/libm.a(lib_a-k_rem_pio2.o)
 .debug_loc     0x000000000000f120      0x110 /usr/lib//arm-none-eabi/lib/libm.a(lib_a-k_sin.o)
 .debug_loc     0x000000000000f230      0x439 /usr/lib//arm-none-eabi/lib/libm.a(lib_a-k_tan.o)
 .debug_loc     0x000000000000f669      0x9fd /usr/lib//arm-none-eabi/lib/libm.a(lib_a-s_expm1.o)
 .debug_loc     0x0000000000010066       0x2c /usr/lib//arm-none-eabi/lib/libm.a(lib_a-s_finite.o)
 .debug_loc     0x0000000000010092       0x25 /usr/lib//arm-none-eabi/lib/libm.a(lib_a-s_nan.o)
 .debug_loc     0x00000000000100b7      0x366 /usr/lib//arm-none-eabi/lib/libm.a(lib_a-s_rint.o)
 .debug_loc     0x000000000001041d      0x28e /usr/lib//arm-none-eabi/lib/libm.a(lib_a-s_scalbn.o)
 .debug_loc     0x00000000000106ab      0x232 /usr/lib//arm-none-eabi/lib/libm.a(lib_a-math_err.o)
 .debug_loc     0x00000000000108dd       0x25 /usr/lib//arm-none-eabi/lib/libc.a(lib_a-atof.o)
 .debug_loc     0x0000000000010902       0x6f /usr/lib//arm-none-eabi/lib/libc.a(lib_a-atoi.o)
 .debug_loc     0x0000000000010971       0x6f /usr/lib//arm-none-eabi/lib/libc.a(lib_a-atol.o)
 .debug_loc     0x00000000000109e0      0x173 /usr/lib//arm-none-eabi/lib/libc.a(lib_a-bsearch.o)
 .debug_loc     0x0000000000010b53       0x64 /usr/lib//arm-none-eabi/lib/libc.a(lib_a-malloc.o)
 .debug_loc     0x0000000000010bb7      0xe91 /usr/lib//arm-none-eabi/lib/libc.a(lib_a-mallocr.o)
 .debug_loc     0x0000000000011a48      0x1ad /usr/lib//arm-none-eabi/lib/libc.a(lib_a-memchr-stub.o)
 .debug_loc     0x0000000000011bf5      0x1c1 /usr/lib//arm-none-eabi/lib/libc.a(lib_a-memcmp.o)
 .debug_loc     0x0000000000011db6      0x221 /usr/lib//arm-none-eabi/lib/libc.a(lib_a-memcpy-stub.o)
 .debug_loc     0x0000000000011fd7      0x28a /usr/lib//arm-none-eabi/lib/libc.a(lib_a-memmove.o)
 .debug_loc     0x0000000000012261      0x313 /usr/lib//arm-none-eabi/lib/libc.a(lib_a-memset.o)
 .debug_loc     0x0000000000012574     0x1dc9 /usr/lib//arm-none-eabi/lib/libc.a(lib_a-qsort.o)
 .debug_loc     0x000000000001433d       0x38 /usr/lib//arm-none-eabi/lib/libc.a(lib_a-rand.o)
 .debug_loc     0x0000000000014375       0x89 /usr/lib//arm-none-eabi/lib/libc.a(lib_a-sbrkr.o)
 .debug_loc     0x00000000000143fe       0xa6 /usr/lib//arm-none-eabi/lib/libc.a(lib_a-sprintf.o)
 .debug_loc     0x00000000000144a4       0xd0 /usr/lib//arm-none-eabi/lib/libc.a(lib_a-strcat.o)
 .debug_loc     0x0000000000014574      0x1fa /usr/lib//arm-none-eabi/lib/libc.a(lib_a-strchr.o)
 .debug_loc     0x000000000001476e       0x25 /usr/lib//arm-none-eabi/lib/libc.a(lib_a-strcpy.o)
 .debug_loc     0x0000000000014793      0x109 /usr/lib//arm-none-eabi/lib/libc.a(lib_a-strcspn.o)
 .debug_loc     0x000000000001489c      0x172 /usr/lib//arm-none-eabi/lib/libc.a(lib_a-strncat.o)
 .debug_loc     0x0000000000014a0e      0x1b5 /usr/lib//arm-none-eabi/lib/libc.a(lib_a-strncpy.o)
 .debug_loc     0x0000000000014bc3       0xf3 /usr/lib//arm-none-eabi/lib/libc.a(lib_a-strrchr.o)
 .debug_loc     0x0000000000014cb6       0xe2 /usr/lib//arm-none-eabi/lib/libc.a(lib_a-strspn.o)
 .debug_loc     0x0000000000014d98      0xee6 /usr/lib//arm-none-eabi/lib/libc.a(lib_a-strstr.o)
 .debug_loc     0x0000000000015c7e     0x263a /usr/lib//arm-none-eabi/lib/libc.a(lib_a-strtod.o)
 .debug_loc     0x00000000000182b8       0x6d /usr/lib//arm-none-eabi/lib/libc.a(lib_a-strtok.o)
 .debug_loc     0x0000000000018325      0x1ff /usr/lib//arm-none-eabi/lib/libc.a(lib_a-strtok_r.o)
 .debug_loc     0x0000000000018524      0xb4b /usr/lib//arm-none-eabi/lib/libc.a(lib_a-strtol.o)
 .debug_loc     0x000000000001906f     0x27e8 /usr/lib//arm-none-eabi/lib/libc.a(lib_a-svfprintf.o)
 .debug_loc     0x000000000001b857      0x19e /usr/lib//arm-none-eabi/lib/libc.a(lib_a-vsprintf.o)
 .debug_loc     0x000000000001b9f5     0x2e2e /usr/lib//arm-none-eabi/lib/libc.a(lib_a-dtoa.o)
 .debug_loc     0x000000000001e823      0x600 /usr/lib//arm-none-eabi/lib/libc.a(lib_a-freer.o)
 .debug_loc     0x000000000001ee23     0x1589 /usr/lib//arm-none-eabi/lib/libc.a(lib_a-gdtoa-gethex.o)
 .debug_loc     0x00000000000203ac      0x724 /usr/lib//arm-none-eabi/lib/libc.a(lib_a-gdtoa-hexnan.o)
 .debug_loc     0x0000000000020ad0       0x25 /usr/lib//arm-none-eabi/lib/libc.a(lib_a-lnumeric.o)
 .debug_loc     0x0000000000020af5      0x1f2 /usr/lib//arm-none-eabi/lib/libc.a(lib_a-locale.o)
 .debug_loc     0x0000000000020ce7       0x6f /usr/lib//arm-none-eabi/lib/libc.a(lib_a-localeconv.o)
 .debug_loc     0x0000000000020d56      0x171 /usr/lib//arm-none-eabi/lib/libc.a(lib_a-mbtowc_r.o)
 .debug_loc     0x0000000000020ec7     0x3591 /usr/lib//arm-none-eabi/lib/libc.a(lib_a-mprec.o)
 .debug_loc     0x0000000000024458      0x1d3 /usr/lib//arm-none-eabi/lib/libc.a(lib_a-reent.o)
 .debug_loc     0x000000000002462b       0x25 /usr/lib//arm-none-eabi/lib/libc.a(lib_a-sf_nan.o)
 .debug_loc     0x0000000000024650       0x25 /usr/lib//arm-none-eabi/lib/libc.a(lib_a-strlen-stub.o)
 .debug_loc     0x0000000000024675      0x164 /usr/lib//arm-none-eabi/lib/libc.a(lib_a-strncmp.o)
 .debug_loc     0x00000000000247d9       0xeb /usr/lib//arm-none-eabi/lib/libc.a(lib_a-strnlen.o)
 .debug_loc     0x00000000000248c4     0x16d7 /usr/lib//arm-none-eabi/lib/libc.a(lib_a-svfiprintf.o)
 .debug_loc     0x0000000000025f9b      0x159 /usr/lib//arm-none-eabi/lib/libc.a(lib_a-wctomb_r.o)
 .debug_loc     0x00000000000260f4      0x137 /usr/lib//arm-none-eabi/lib/libc.a(lib_a-assert.o)
 .debug_loc     0x000000000002622b      0x294 /usr/lib//arm-none-eabi/lib/libc.a(lib_a-callocr.o)
 .debug_loc     0x00000000000264bf       0xa6 /usr/lib//arm-none-eabi/lib/libc.a(lib_a-fiprintf.o)
 .debug_loc     0x0000000000026565     0x1163 /usr/lib//arm-none-eabi/lib/libc.a(lib_a-reallocr.o)
 .debug_loc     0x00000000000276c8     0x2031 /usr/lib//arm-none-eabi/lib/libc.a(lib_a-vfiprintf.o)
 .debug_loc     0x00000000000296f9       0xf4 /usr/lib//arm-none-eabi/lib/libc.a(lib_a-wsetup.o)
 .debug_loc     0x00000000000297ed      0x514 /usr/lib//arm-none-eabi/lib/libc.a(lib_a-fflush.o)
 .debug_loc     0x0000000000029d01      0x3ea /usr/lib//arm-none-eabi/lib/libc.a(lib_a-findfp.o)
 .debug_loc     0x000000000002a0eb      0x3c5 /usr/lib//arm-none-eabi/lib/libc.a(lib_a-fputwc.o)
 .debug_loc     0x000000000002a4b0      0x6de /usr/lib//arm-none-eabi/lib/libc.a(lib_a-fvwrite.o)
 .debug_loc     0x000000000002ab8e      0x1d1 /usr/lib//arm-none-eabi/lib/libc.a(lib_a-fwalk.o)
 .debug_loc     0x000000000002ad5f      0x45b /usr/lib//arm-none-eabi/lib/libc.a(lib_a-makebuf.o)
 .debug_loc     0x000000000002b1ba      0x699 /usr/lib//arm-none-eabi/lib/libc.a(lib_a-signal.o)
 .debug_loc     0x000000000002b853       0xd8 /usr/lib//arm-none-eabi/lib/libc.a(lib_a-signalr.o)
 .debug_loc     0x000000000002b92b      0x3db /usr/lib//arm-none-eabi/lib/libc.a(lib_a-stdio.o)
 .debug_loc     0x000000000002bd06      0x1ea /usr/lib//arm-none-eabi/lib/libc.a(lib_a-wbuf.o)
 .debug_loc     0x000000000002bef0      0x235 /usr/lib//arm-none-eabi/lib/libc.a(lib_a-wcrtomb.o)
 .debug_loc     0x000000000002c125       0xd0 /usr/lib//arm-none-eabi/lib/libc.a(lib_a-writer.o)
 .debug_loc     0x000000000002c1f5       0x6c /usr/lib//arm-none-eabi/lib/libc.a(lib_a-closer.o)
 .debug_loc     0x000000000002c261      0x355 /usr/lib//arm-none-eabi/lib/libc.a(lib_a-fclose.o)
 .debug_loc     0x000000000002c5b6       0x9e /usr/lib//arm-none-eabi/lib/libc.a(lib_a-fstatr.o)
 .debug_loc     0x000000000002c654       0x6c /usr/lib//arm-none-eabi/lib/libc.a(lib_a-isattyr.o)
 .debug_loc     0x000000000002c6c0       0xd0 /usr/lib//arm-none-eabi/lib/libc.a(lib_a-lseekr.o)
 .debug_loc     0x000000000002c790       0xd0 /usr/lib//arm-none-eabi/lib/libc.a(lib_a-readr.o)
 .debug_loc     0x000000000002c860       0x25 /usr/lib//arm-none-eabi/lib/libnosys.a(close.o)
 .debug_loc     0x000000000002c885       0x25 /usr/lib//arm-none-eabi/lib/libnosys.a(fstat.o)
 .debug_loc     0x000000000002c8aa       0x25 /usr/lib//arm-none-eabi/lib/libnosys.a(isatty.o)
 .debug_loc     0x000000000002c8cf       0x25 /usr/lib//arm-none-eabi/lib/libnosys.a(kill.o)
 .debug_loc     0x000000000002c8f4       0x4a /usr/lib//arm-none-eabi/lib/libnosys.a(lseek.o)
 .debug_loc     0x000000000002c93e       0x4a /usr/lib//arm-none-eabi/lib/libnosys.a(read.o)
 .debug_loc     0x000000000002c988       0x3e /usr/lib//arm-none-eabi/lib/libnosys.a(sbrk.o)
 .debug_loc     0x000000000002c9c6       0x4a /usr/lib//arm-none-eabi/lib/libnosys.a(write.o)
 .debug_loc     0x000000000002ca10       0x15 /usr/lib//arm-none-eabi/lib/libnosys.a(_exit.o)
 .debug_loc     0x000000000002ca25       0x53 /usr/lib/gcc/arm-none-eabi/10.3.1/libgcc.a(_fixsfdi.o)
 .debug_loc     0x000000000002ca78       0x2c /usr/lib/gcc/arm-none-eabi/10.3.1/libgcc.a(_fixdfdi.o)
 .debug_loc     0x000000000002caa4       0xc2 /usr/lib/gcc/arm-none-eabi/10.3.1/libgcc.a(_fixunssfdi.o)
 .debug_loc     0x000000000002cb66       0xad /usr/lib/gcc/arm-none-eabi/10.3.1/libgcc.a(_fixunsdfdi.o)
 .debug_loc     0x000000000002cc13      0x1e7 /usr/lib/gcc/arm-none-eabi/10.3.1/libgcc.a(_udivmoddi4.o)

.debug_aranges  0x0000000000000000     0x1588
 .debug_aranges
                0x0000000000000000       0x20 main.o
 .debug_aranges
                0x0000000000000020       0x20 lpc2388/_init.o
 .debug_aranges
                0x0000000000000040       0x20 lpc2388/ff.o
 .debug_aranges
                0x0000000000000060       0x20 lpc2388/ffsdmm.o
 .debug_aranges
                0x0000000000000080       0x20 lpc2388/lcdlib2388.o
 .debug_aranges
                0x00000000000000a0       0x20 lpc2388/malloc2388.o
 .debug_aranges
                0x00000000000000c0       0x20 lpc2388/rom_func.o
 .debug_aranges
                0x00000000000000e0       0x20 lpc2388/tinymalloc.o
 .debug_aranges
                0x0000000000000100       0x20 lpc2388/uart.o
 .debug_aranges
                0x0000000000000120       0x20 lpc2388/vic_lpc23xx.o
 .debug_aranges
                0x0000000000000140       0x20 lpc2388/xprintf.o
 .debug_aranges
                0x0000000000000160       0x20 /usr/lib//arm-none-eabi/lib/libm.a(lib_a-s_atan.o)
 .debug_aranges
                0x0000000000000180       0x20 /usr/lib//arm-none-eabi/lib/libm.a(lib_a-s_cbrt.o)
 .debug_aranges
                0x00000000000001a0       0x20 /usr/lib//arm-none-eabi/lib/libm.a(lib_a-s_ceil.o)
 .debug_aranges
                0x00000000000001c0       0x20 /usr/lib//arm-none-eabi/lib/libm.a(lib_a-s_cos.o)
 .debug_aranges
                0x00000000000001e0       0x20 /usr/lib//arm-none-eabi/lib/libm.a(lib_a-s_erf.o)
 .debug_aranges
                0x0000000000000200       0x20 /usr/lib//arm-none-eabi/lib/libm.a(lib_a-s_fabs.o)
 .debug_aranges
                0x0000000000000220       0x20 /usr/lib//arm-none-eabi/lib/libm.a(lib_a-s_floor.o)
 .debug_aranges
                0x0000000000000240       0x20 /usr/lib//arm-none-eabi/lib/libm.a(lib_a-s_modf.o)
 .debug_aranges
                0x0000000000000260       0x20 /usr/lib//arm-none-eabi/lib/libm.a(lib_a-s_round.o)
 .debug_aranges
                0x0000000000000280       0x20 /usr/lib//arm-none-eabi/lib/libm.a(lib_a-s_sin.o)
 .debug_aranges
                0x00000000000002a0       0x20 /usr/lib//arm-none-eabi/lib/libm.a(lib_a-s_tan.o)
 .debug_aranges
                0x00000000000002c0       0x20 /usr/lib//arm-none-eabi/lib/libm.a(lib_a-s_tanh.o)
 .debug_aranges
                0x00000000000002e0       0x20 /usr/lib//arm-none-eabi/lib/libm.a(lib_a-s_trunc.o)
 .debug_aranges
                0x0000000000000300       0x20 /usr/lib//arm-none-eabi/lib/libm.a(lib_a-w_acos.o)
 .debug_aranges
                0x0000000000000320       0x20 /usr/lib//arm-none-eabi/lib/libm.a(lib_a-w_asin.o)
 .debug_aranges
                0x0000000000000340       0x20 /usr/lib//arm-none-eabi/lib/libm.a(lib_a-w_atan2.o)
 .debug_aranges
                0x0000000000000360       0x20 /usr/lib//arm-none-eabi/lib/libm.a(lib_a-w_cosh.o)
 .debug_aranges
                0x0000000000000380       0x20 /usr/lib//arm-none-eabi/lib/libm.a(lib_a-w_exp.o)
 .debug_aranges
                0x00000000000003a0       0x20 /usr/lib//arm-none-eabi/lib/libm.a(lib_a-w_fmod.o)
 .debug_aranges
                0x00000000000003c0       0x20 /usr/lib//arm-none-eabi/lib/libm.a(lib_a-w_hypot.o)
 .debug_aranges
                0x00000000000003e0       0x20 /usr/lib//arm-none-eabi/lib/libm.a(lib_a-w_log.o)
 .debug_aranges
                0x0000000000000400       0x20 /usr/lib//arm-none-eabi/lib/libm.a(lib_a-w_log10.o)
 .debug_aranges
                0x0000000000000420       0x20 /usr/lib//arm-none-eabi/lib/libm.a(lib_a-w_pow.o)
 .debug_aranges
                0x0000000000000440       0x20 /usr/lib//arm-none-eabi/lib/libm.a(lib_a-w_sinh.o)
 .debug_aranges
                0x0000000000000460       0x20 /usr/lib//arm-none-eabi/lib/libm.a(lib_a-w_sqrt.o)
 .debug_aranges
                0x0000000000000480       0x20 /usr/lib//arm-none-eabi/lib/libm.a(lib_a-e_acos.o)
 .debug_aranges
                0x00000000000004a0       0x20 /usr/lib//arm-none-eabi/lib/libm.a(lib_a-e_asin.o)
 .debug_aranges
                0x00000000000004c0       0x20 /usr/lib//arm-none-eabi/lib/libm.a(lib_a-e_atan2.o)
 .debug_aranges
                0x00000000000004e0       0x20 /usr/lib//arm-none-eabi/lib/libm.a(lib_a-e_cosh.o)
 .debug_aranges
                0x0000000000000500       0x20 /usr/lib//arm-none-eabi/lib/libm.a(lib_a-e_exp.o)
 .debug_aranges
                0x0000000000000520       0x20 /usr/lib//arm-none-eabi/lib/libm.a(lib_a-e_fmod.o)
 .debug_aranges
                0x0000000000000540       0x20 /usr/lib//arm-none-eabi/lib/libm.a(lib_a-e_hypot.o)
 .debug_aranges
                0x0000000000000560       0x20 /usr/lib//arm-none-eabi/lib/libm.a(lib_a-e_log.o)
 .debug_aranges
                0x0000000000000580       0x20 /usr/lib//arm-none-eabi/lib/libm.a(lib_a-e_log10.o)
 .debug_aranges
                0x00000000000005a0       0x20 /usr/lib//arm-none-eabi/lib/libm.a(lib_a-e_pow.o)
 .debug_aranges
                0x00000000000005c0       0x20 /usr/lib//arm-none-eabi/lib/libm.a(lib_a-e_rem_pio2.o)
 .debug_aranges
                0x00000000000005e0       0x20 /usr/lib//arm-none-eabi/lib/libm.a(lib_a-e_sinh.o)
 .debug_aranges
                0x0000000000000600       0x20 /usr/lib//arm-none-eabi/lib/libm.a(lib_a-e_sqrt.o)
 .debug_aranges
                0x0000000000000620       0x20 /usr/lib//arm-none-eabi/lib/libm.a(lib_a-k_cos.o)
 .debug_aranges
                0x0000000000000640       0x20 /usr/lib//arm-none-eabi/lib/libm.a(lib_a-k_rem_pio2.o)
 .debug_aranges
                0x0000000000000660       0x20 /usr/lib//arm-none-eabi/lib/libm.a(lib_a-k_sin.o)
 .debug_aranges
                0x0000000000000680       0x20 /usr/lib//arm-none-eabi/lib/libm.a(lib_a-k_tan.o)
 .debug_aranges
                0x00000000000006a0       0x20 /usr/lib//arm-none-eabi/lib/libm.a(lib_a-s_expm1.o)
 .debug_aranges
                0x00000000000006c0       0x20 /usr/lib//arm-none-eabi/lib/libm.a(lib_a-s_finite.o)
 .debug_aranges
                0x00000000000006e0       0x18 /usr/lib//arm-none-eabi/lib/libm.a(lib_a-s_lib_ver.o)
 .debug_aranges
                0x00000000000006f8       0x20 /usr/lib//arm-none-eabi/lib/libm.a(lib_a-s_nan.o)
 .debug_aranges
                0x0000000000000718       0x20 /usr/lib//arm-none-eabi/lib/libm.a(lib_a-s_rint.o)
 .debug_aranges
                0x0000000000000738       0x20 /usr/lib//arm-none-eabi/lib/libm.a(lib_a-s_scalbn.o)
 .debug_aranges
                0x0000000000000758       0x20 /usr/lib//arm-none-eabi/lib/libm.a(lib_a-math_err.o)
 .debug_aranges
                0x0000000000000778       0x20 /usr/lib//arm-none-eabi/lib/libc.a(lib_a-atof.o)
 .debug_aranges
                0x0000000000000798       0x20 /usr/lib//arm-none-eabi/lib/libc.a(lib_a-atoi.o)
 .debug_aranges
                0x00000000000007b8       0x20 /usr/lib//arm-none-eabi/lib/libc.a(lib_a-atol.o)
 .debug_aranges
                0x00000000000007d8       0x20 /usr/lib//arm-none-eabi/lib/libc.a(lib_a-bsearch.o)
 .debug_aranges
                0x00000000000007f8       0x18 /usr/lib//arm-none-eabi/lib/libc.a(lib_a-ctype_.o)
 .debug_aranges
                0x0000000000000810       0x20 /usr/lib//arm-none-eabi/lib/libc.a(lib_a-errno.o)
 .debug_aranges
                0x0000000000000830       0x18 /usr/lib//arm-none-eabi/lib/libc.a(lib_a-impure.o)
 .debug_aranges
                0x0000000000000848       0x20 /usr/lib//arm-none-eabi/lib/libc.a(lib_a-malloc.o)
 .debug_aranges
                0x0000000000000868       0x20 /usr/lib//arm-none-eabi/lib/libc.a(lib_a-mallocr.o)
 .debug_aranges
                0x0000000000000888       0x20 /usr/lib//arm-none-eabi/lib/libc.a(lib_a-memchr-stub.o)
 .debug_aranges
                0x00000000000008a8       0x20 /usr/lib//arm-none-eabi/lib/libc.a(lib_a-memcmp.o)
 .debug_aranges
                0x00000000000008c8       0x20 /usr/lib//arm-none-eabi/lib/libc.a(lib_a-memcpy-stub.o)
 .debug_aranges
                0x00000000000008e8       0x20 /usr/lib//arm-none-eabi/lib/libc.a(lib_a-memmove.o)
 .debug_aranges
                0x0000000000000908       0x20 /usr/lib//arm-none-eabi/lib/libc.a(lib_a-memset.o)
 .debug_aranges
                0x0000000000000928       0x20 /usr/lib//arm-none-eabi/lib/libc.a(lib_a-mlock.o)
 .debug_aranges
                0x0000000000000948       0x20 /usr/lib//arm-none-eabi/lib/libc.a(lib_a-qsort.o)
 .debug_aranges
                0x0000000000000968       0x20 /usr/lib//arm-none-eabi/lib/libc.a(lib_a-rand.o)
 .debug_aranges
                0x0000000000000988       0x20 /usr/lib//arm-none-eabi/lib/libc.a(lib_a-sbrkr.o)
 .debug_aranges
                0x00000000000009a8       0x20 /usr/lib//arm-none-eabi/lib/libc.a(lib_a-sprintf.o)
 .debug_aranges
                0x00000000000009c8       0x20 /usr/lib//arm-none-eabi/lib/libc.a(lib_a-strcat.o)
 .debug_aranges
                0x00000000000009e8       0x20 /usr/lib//arm-none-eabi/lib/libc.a(lib_a-strchr.o)
 .debug_aranges
                0x0000000000000a08       0x20 /usr/lib//arm-none-eabi/lib/libc.a(lib_a-strcpy.o)
 .debug_aranges
                0x0000000000000a28       0x20 /usr/lib//arm-none-eabi/lib/libc.a(lib_a-strcspn.o)
 .debug_aranges
                0x0000000000000a48       0x20 /usr/lib//arm-none-eabi/lib/libc.a(lib_a-strncat.o)
 .debug_aranges
                0x0000000000000a68       0x20 /usr/lib//arm-none-eabi/lib/libc.a(lib_a-strncpy.o)
 .debug_aranges
                0x0000000000000a88       0x20 /usr/lib//arm-none-eabi/lib/libc.a(lib_a-strrchr.o)
 .debug_aranges
                0x0000000000000aa8       0x20 /usr/lib//arm-none-eabi/lib/libc.a(lib_a-strspn.o)
 .debug_aranges
                0x0000000000000ac8       0x20 /usr/lib//arm-none-eabi/lib/libc.a(lib_a-strstr.o)
 .debug_aranges
                0x0000000000000ae8       0x20 /usr/lib//arm-none-eabi/lib/libc.a(lib_a-strtod.o)
 .debug_aranges
                0x0000000000000b08       0x20 /usr/lib//arm-none-eabi/lib/libc.a(lib_a-strtok.o)
 .debug_aranges
                0x0000000000000b28       0x20 /usr/lib//arm-none-eabi/lib/libc.a(lib_a-strtok_r.o)
 .debug_aranges
                0x0000000000000b48       0x20 /usr/lib//arm-none-eabi/lib/libc.a(lib_a-strtol.o)
 .debug_aranges
                0x0000000000000b68       0x20 /usr/lib//arm-none-eabi/lib/libc.a(lib_a-svfprintf.o)
 .debug_aranges
                0x0000000000000b88       0x20 /usr/lib//arm-none-eabi/lib/libc.a(lib_a-vsprintf.o)
 .debug_aranges
                0x0000000000000ba8       0x20 /usr/lib//arm-none-eabi/lib/libc.a(lib_a-dtoa.o)
 .debug_aranges
                0x0000000000000bc8       0x20 /usr/lib//arm-none-eabi/lib/libc.a(lib_a-freer.o)
 .debug_aranges
                0x0000000000000be8       0x20 /usr/lib//arm-none-eabi/lib/libc.a(lib_a-gdtoa-gethex.o)
 .debug_aranges
                0x0000000000000c08       0x20 /usr/lib//arm-none-eabi/lib/libc.a(lib_a-gdtoa-hexnan.o)
 .debug_aranges
                0x0000000000000c28       0x20 /usr/lib//arm-none-eabi/lib/libc.a(lib_a-lnumeric.o)
 .debug_aranges
                0x0000000000000c48       0x20 /usr/lib//arm-none-eabi/lib/libc.a(lib_a-locale.o)
 .debug_aranges
                0x0000000000000c68       0x20 /usr/lib//arm-none-eabi/lib/libc.a(lib_a-localeconv.o)
 .debug_aranges
                0x0000000000000c88       0x20 /usr/lib//arm-none-eabi/lib/libc.a(lib_a-mbtowc_r.o)
 .debug_aranges
                0x0000000000000ca8       0x20 /usr/lib//arm-none-eabi/lib/libc.a(lib_a-mprec.o)
 .debug_aranges
                0x0000000000000cc8       0x20 /usr/lib//arm-none-eabi/lib/libc.a(lib_a-reent.o)
 .debug_aranges
                0x0000000000000ce8       0x20 /usr/lib//arm-none-eabi/lib/libc.a(lib_a-sf_nan.o)
 .debug_aranges
                0x0000000000000d08       0x20 /usr/lib//arm-none-eabi/lib/libc.a(lib_a-strcmp.o)
 .debug_aranges
                0x0000000000000d28       0x20 /usr/lib//arm-none-eabi/lib/libc.a(lib_a-strlen-stub.o)
 .debug_aranges
                0x0000000000000d48       0x20 /usr/lib//arm-none-eabi/lib/libc.a(lib_a-strncmp.o)
 .debug_aranges
                0x0000000000000d68       0x20 /usr/lib//arm-none-eabi/lib/libc.a(lib_a-strnlen.o)
 .debug_aranges
                0x0000000000000d88       0x20 /usr/lib//arm-none-eabi/lib/libc.a(lib_a-svfiprintf.o)
 .debug_aranges
                0x0000000000000da8       0x20 /usr/lib//arm-none-eabi/lib/libc.a(lib_a-wctomb_r.o)
 .debug_aranges
                0x0000000000000dc8       0x20 /usr/lib//arm-none-eabi/lib/libc.a(lib_a-assert.o)
 .debug_aranges
                0x0000000000000de8       0x20 /usr/lib//arm-none-eabi/lib/libc.a(lib_a-callocr.o)
 .debug_aranges
                0x0000000000000e08       0x20 /usr/lib//arm-none-eabi/lib/libc.a(lib_a-fiprintf.o)
 .debug_aranges
                0x0000000000000e28       0x20 /usr/lib//arm-none-eabi/lib/libc.a(lib_a-reallocr.o)
 .debug_aranges
                0x0000000000000e48       0x20 /usr/lib//arm-none-eabi/lib/libc.a(lib_a-vfiprintf.o)
 .debug_aranges
                0x0000000000000e68       0x20 /usr/lib//arm-none-eabi/lib/libc.a(lib_a-wsetup.o)
 .debug_aranges
                0x0000000000000e88       0x20 /usr/lib//arm-none-eabi/lib/libc.a(lib_a-abort.o)
 .debug_aranges
                0x0000000000000ea8       0x20 /usr/lib//arm-none-eabi/lib/libc.a(lib_a-fflush.o)
 .debug_aranges
                0x0000000000000ec8       0x20 /usr/lib//arm-none-eabi/lib/libc.a(lib_a-findfp.o)
 .debug_aranges
                0x0000000000000ee8       0x20 /usr/lib//arm-none-eabi/lib/libc.a(lib_a-fputwc.o)
 .debug_aranges
                0x0000000000000f08       0x20 /usr/lib//arm-none-eabi/lib/libc.a(lib_a-fvwrite.o)
 .debug_aranges
                0x0000000000000f28       0x20 /usr/lib//arm-none-eabi/lib/libc.a(lib_a-fwalk.o)
 .debug_aranges
                0x0000000000000f48       0x20 /usr/lib//arm-none-eabi/lib/libc.a(lib_a-makebuf.o)
 .debug_aranges
                0x0000000000000f68       0x20 /usr/lib//arm-none-eabi/lib/libc.a(lib_a-signal.o)
 .debug_aranges
                0x0000000000000f88       0x20 /usr/lib//arm-none-eabi/lib/libc.a(lib_a-signalr.o)
 .debug_aranges
                0x0000000000000fa8       0x20 /usr/lib//arm-none-eabi/lib/libc.a(lib_a-stdio.o)
 .debug_aranges
                0x0000000000000fc8       0x20 /usr/lib//arm-none-eabi/lib/libc.a(lib_a-wbuf.o)
 .debug_aranges
                0x0000000000000fe8       0x20 /usr/lib//arm-none-eabi/lib/libc.a(lib_a-wcrtomb.o)
 .debug_aranges
                0x0000000000001008       0x20 /usr/lib//arm-none-eabi/lib/libc.a(lib_a-writer.o)
 .debug_aranges
                0x0000000000001028       0x20 /usr/lib//arm-none-eabi/lib/libc.a(lib_a-closer.o)
 .debug_aranges
                0x0000000000001048       0x20 /usr/lib//arm-none-eabi/lib/libc.a(lib_a-fclose.o)
 .debug_aranges
                0x0000000000001068       0x20 /usr/lib//arm-none-eabi/lib/libc.a(lib_a-fstatr.o)
 .debug_aranges
                0x0000000000001088       0x20 /usr/lib//arm-none-eabi/lib/libc.a(lib_a-isattyr.o)
 .debug_aranges
                0x00000000000010a8       0x20 /usr/lib//arm-none-eabi/lib/libc.a(lib_a-lseekr.o)
 .debug_aranges
                0x00000000000010c8       0x20 /usr/lib//arm-none-eabi/lib/libc.a(lib_a-readr.o)
 .debug_aranges
                0x00000000000010e8       0x20 /usr/lib//arm-none-eabi/lib/libnosys.a(close.o)
 .debug_aranges
                0x0000000000001108       0x20 /usr/lib//arm-none-eabi/lib/libnosys.a(fstat.o)
 .debug_aranges
                0x0000000000001128       0x20 /usr/lib//arm-none-eabi/lib/libnosys.a(getpid.o)
 .debug_aranges
                0x0000000000001148       0x20 /usr/lib//arm-none-eabi/lib/libnosys.a(isatty.o)
 .debug_aranges
                0x0000000000001168       0x20 /usr/lib//arm-none-eabi/lib/libnosys.a(kill.o)
 .debug_aranges
                0x0000000000001188       0x20 /usr/lib//arm-none-eabi/lib/libnosys.a(lseek.o)
 .debug_aranges
                0x00000000000011a8       0x20 /usr/lib//arm-none-eabi/lib/libnosys.a(read.o)
 .debug_aranges
                0x00000000000011c8       0x20 /usr/lib//arm-none-eabi/lib/libnosys.a(sbrk.o)
 .debug_aranges
                0x00000000000011e8       0x20 /usr/lib//arm-none-eabi/lib/libnosys.a(write.o)
 .debug_aranges
                0x0000000000001208       0x20 /usr/lib//arm-none-eabi/lib/libnosys.a(_exit.o)
 .debug_aranges
                0x0000000000001228       0x20 /usr/lib/gcc/arm-none-eabi/10.3.1/libgcc.a(_arm_muldf3.o)
 .debug_aranges
                0x0000000000001248       0x20 /usr/lib/gcc/arm-none-eabi/10.3.1/libgcc.a(_arm_mulsf3.o)
 .debug_aranges
                0x0000000000001268       0x20 /usr/lib/gcc/arm-none-eabi/10.3.1/libgcc.a(_udivsi3.o)
 .debug_aranges
                0x0000000000001288       0x20 /usr/lib/gcc/arm-none-eabi/10.3.1/libgcc.a(_divsi3.o)
 .debug_aranges
                0x00000000000012a8       0x20 /usr/lib/gcc/arm-none-eabi/10.3.1/libgcc.a(_dvmd_tls.o)
 .debug_aranges
                0x00000000000012c8       0x20 /usr/lib/gcc/arm-none-eabi/10.3.1/libgcc.a(_arm_addsubdf3.o)
 .debug_aranges
                0x00000000000012e8       0x20 /usr/lib/gcc/arm-none-eabi/10.3.1/libgcc.a(_arm_muldivdf3.o)
 .debug_aranges
                0x0000000000001308       0x20 /usr/lib/gcc/arm-none-eabi/10.3.1/libgcc.a(_arm_cmpdf2.o)
 .debug_aranges
                0x0000000000001328       0x20 /usr/lib/gcc/arm-none-eabi/10.3.1/libgcc.a(_arm_unorddf2.o)
 .debug_aranges
                0x0000000000001348       0x20 /usr/lib/gcc/arm-none-eabi/10.3.1/libgcc.a(_arm_fixdfsi.o)
 .debug_aranges
                0x0000000000001368       0x20 /usr/lib/gcc/arm-none-eabi/10.3.1/libgcc.a(_arm_fixunsdfsi.o)
 .debug_aranges
                0x0000000000001388       0x20 /usr/lib/gcc/arm-none-eabi/10.3.1/libgcc.a(_arm_truncdfsf2.o)
 .debug_aranges
                0x00000000000013a8       0x20 /usr/lib/gcc/arm-none-eabi/10.3.1/libgcc.a(_arm_addsubsf3.o)
 .debug_aranges
                0x00000000000013c8       0x20 /usr/lib/gcc/arm-none-eabi/10.3.1/libgcc.a(_arm_muldivsf3.o)
 .debug_aranges
                0x00000000000013e8       0x20 /usr/lib/gcc/arm-none-eabi/10.3.1/libgcc.a(_arm_cmpsf2.o)
 .debug_aranges
                0x0000000000001408       0x20 /usr/lib/gcc/arm-none-eabi/10.3.1/libgcc.a(_arm_unordsf2.o)
 .debug_aranges
                0x0000000000001428       0x20 /usr/lib/gcc/arm-none-eabi/10.3.1/libgcc.a(_arm_fixsfsi.o)
 .debug_aranges
                0x0000000000001448       0x20 /usr/lib/gcc/arm-none-eabi/10.3.1/libgcc.a(_arm_fixunssfsi.o)
 .debug_aranges
                0x0000000000001468       0x20 /usr/lib/gcc/arm-none-eabi/10.3.1/libgcc.a(_aeabi_ldivmod.o)
 .debug_aranges
                0x0000000000001488       0x20 /usr/lib/gcc/arm-none-eabi/10.3.1/libgcc.a(_aeabi_uldivmod.o)
 .debug_aranges
                0x00000000000014a8       0x20 /usr/lib/gcc/arm-none-eabi/10.3.1/libgcc.a(_fixsfdi.o)
 .debug_aranges
                0x00000000000014c8       0x20 /usr/lib/gcc/arm-none-eabi/10.3.1/libgcc.a(_fixdfdi.o)
 .debug_aranges
                0x00000000000014e8       0x20 /usr/lib/gcc/arm-none-eabi/10.3.1/libgcc.a(_fixunssfdi.o)
 .debug_aranges
                0x0000000000001508       0x20 /usr/lib/gcc/arm-none-eabi/10.3.1/libgcc.a(_fixunsdfdi.o)
 .debug_aranges
                0x0000000000001528       0x20 /usr/lib/gcc/arm-none-eabi/10.3.1/libgcc.a(_udivmoddi4.o)
 .debug_aranges
                0x0000000000001548       0x20 /usr/lib/gcc/arm-none-eabi/10.3.1/libgcc.a(_clzdi2.o)
 .debug_aranges
                0x0000000000001568       0x20 /usr/lib/gcc/arm-none-eabi/10.3.1/libgcc.a(_clzsi2.o)

.debug_macinfo  0x0000000000000000    0x80179
 .debug_macinfo
                0x0000000000000000    0x10d96 main.o
 .debug_macinfo
                0x0000000000010d96    0x108dd lpc2388/_init.o
 .debug_macinfo
                0x0000000000021673     0x6f5c lpc2388/ff.o
 .debug_macinfo
                0x00000000000285cf     0xf0b0 lpc2388/ffsdmm.o
 .debug_macinfo
                0x000000000003767f     0xf08c lpc2388/lcdlib2388.o
 .debug_macinfo
                0x000000000004670b     0x7068 lpc2388/malloc2388.o
 .debug_macinfo
                0x000000000004d773     0x965c lpc2388/rom_func.o
 .debug_macinfo
                0x0000000000056dcf     0x6d78 lpc2388/tinymalloc.o
 .debug_macinfo
                0x000000000005db47     0xecc0 lpc2388/uart.o
 .debug_macinfo
                0x000000000006c807    0x108c3 lpc2388/vic_lpc23xx.o
 .debug_macinfo
                0x000000000007d0ca     0x30af lpc2388/xprintf.o

.debug_line     0x0000000000000000    0x22a9e
 .debug_line    0x0000000000000000      0x1a7 main.o
 .debug_line    0x00000000000001a7      0x301 lpc2388/_init.o
 .debug_line    0x00000000000004a8     0x4104 lpc2388/ff.o
 .debug_line    0x00000000000045ac      0x7f9 lpc2388/ffsdmm.o
 .debug_line    0x0000000000004da5      0x21b lpc2388/lcdlib2388.o
 .debug_line    0x0000000000004fc0      0x2cb lpc2388/malloc2388.o
 .debug_line    0x000000000000528b      0xb0a lpc2388/rom_func.o
 .debug_line    0x0000000000005d95      0x4a9 lpc2388/tinymalloc.o
 .debug_line    0x000000000000623e       0xf7 lpc2388/uart.o
 .debug_line    0x0000000000006335      0x25d lpc2388/vic_lpc23xx.o
 .debug_line    0x0000000000006592      0x697 lpc2388/xprintf.o
 .debug_line    0x0000000000006c29      0x303 /usr/lib//arm-none-eabi/lib/libm.a(lib_a-s_atan.o)
 .debug_line    0x0000000000006f2c      0x253 /usr/lib//arm-none-eabi/lib/libm.a(lib_a-s_cbrt.o)
 .debug_line    0x000000000000717f      0x27c /usr/lib//arm-none-eabi/lib/libm.a(lib_a-s_ceil.o)
 .debug_line    0x00000000000073fb      0x1ce /usr/lib//arm-none-eabi/lib/libm.a(lib_a-s_cos.o)
 .debug_line    0x00000000000075c9      0x7a9 /usr/lib//arm-none-eabi/lib/libm.a(lib_a-s_erf.o)
 .debug_line    0x0000000000007d72      0x13a /usr/lib//arm-none-eabi/lib/libm.a(lib_a-s_fabs.o)
 .debug_line    0x0000000000007eac      0x287 /usr/lib//arm-none-eabi/lib/libm.a(lib_a-s_floor.o)
 .debug_line    0x0000000000008133      0x222 /usr/lib//arm-none-eabi/lib/libm.a(lib_a-s_modf.o)
 .debug_line    0x0000000000008355      0x1ec /usr/lib//arm-none-eabi/lib/libm.a(lib_a-s_round.o)
 .debug_line    0x0000000000008541      0x1cf /usr/lib//arm-none-eabi/lib/libm.a(lib_a-s_sin.o)
 .debug_line    0x0000000000008710      0x1ad /usr/lib//arm-none-eabi/lib/libm.a(lib_a-s_tan.o)
 .debug_line    0x00000000000088bd      0x1ff /usr/lib//arm-none-eabi/lib/libm.a(lib_a-s_tanh.o)
 .debug_line    0x0000000000008abc      0x18f /usr/lib//arm-none-eabi/lib/libm.a(lib_a-s_trunc.o)
 .debug_line    0x0000000000008c4b      0x16d /usr/lib//arm-none-eabi/lib/libm.a(lib_a-w_acos.o)
 .debug_line    0x0000000000008db8      0x16b /usr/lib//arm-none-eabi/lib/libm.a(lib_a-w_asin.o)
 .debug_line    0x0000000000008f23       0xdf /usr/lib//arm-none-eabi/lib/libm.a(lib_a-w_atan2.o)
 .debug_line    0x0000000000009002      0x167 /usr/lib//arm-none-eabi/lib/libm.a(lib_a-w_cosh.o)
 .debug_line    0x0000000000009169      0x180 /usr/lib//arm-none-eabi/lib/libm.a(lib_a-w_exp.o)
 .debug_line    0x00000000000092e9      0x173 /usr/lib//arm-none-eabi/lib/libm.a(lib_a-w_fmod.o)
 .debug_line    0x000000000000945c      0x176 /usr/lib//arm-none-eabi/lib/libm.a(lib_a-w_hypot.o)
 .debug_line    0x00000000000095d2      0x180 /usr/lib//arm-none-eabi/lib/libm.a(lib_a-w_log.o)
 .debug_line    0x0000000000009752      0x187 /usr/lib//arm-none-eabi/lib/libm.a(lib_a-w_log10.o)
 .debug_line    0x00000000000098d9      0x253 /usr/lib//arm-none-eabi/lib/libm.a(lib_a-w_pow.o)
 .debug_line    0x0000000000009b2c      0x16f /usr/lib//arm-none-eabi/lib/libm.a(lib_a-w_sinh.o)
 .debug_line    0x0000000000009c9b      0x161 /usr/lib//arm-none-eabi/lib/libm.a(lib_a-w_sqrt.o)
 .debug_line    0x0000000000009dfc      0x2fb /usr/lib//arm-none-eabi/lib/libm.a(lib_a-e_acos.o)
 .debug_line    0x000000000000a0f7      0x2fa /usr/lib//arm-none-eabi/lib/libm.a(lib_a-e_asin.o)
 .debug_line    0x000000000000a3f1      0x2cb /usr/lib//arm-none-eabi/lib/libm.a(lib_a-e_atan2.o)
 .debug_line    0x000000000000a6bc      0x244 /usr/lib//arm-none-eabi/lib/libm.a(lib_a-e_cosh.o)
 .debug_line    0x000000000000a900      0x330 /usr/lib//arm-none-eabi/lib/libm.a(lib_a-e_exp.o)
 .debug_line    0x000000000000ac30      0x559 /usr/lib//arm-none-eabi/lib/libm.a(lib_a-e_fmod.o)
 .debug_line    0x000000000000b189      0x353 /usr/lib//arm-none-eabi/lib/libm.a(lib_a-e_hypot.o)
 .debug_line    0x000000000000b4dc      0x42e /usr/lib//arm-none-eabi/lib/libm.a(lib_a-e_log.o)
 .debug_line    0x000000000000b90a      0x21b /usr/lib//arm-none-eabi/lib/libm.a(lib_a-e_log10.o)
 .debug_line    0x000000000000bb25      0x925 /usr/lib//arm-none-eabi/lib/libm.a(lib_a-e_pow.o)
 .debug_line    0x000000000000c44a      0x510 /usr/lib//arm-none-eabi/lib/libm.a(lib_a-e_rem_pio2.o)
 .debug_line    0x000000000000c95a      0x2a8 /usr/lib//arm-none-eabi/lib/libm.a(lib_a-e_sinh.o)
 .debug_line    0x000000000000cc02      0x3c5 /usr/lib//arm-none-eabi/lib/libm.a(lib_a-e_sqrt.o)
 .debug_line    0x000000000000cfc7      0x20e /usr/lib//arm-none-eabi/lib/libm.a(lib_a-k_cos.o)
 .debug_line    0x000000000000d1d5      0xb0d /usr/lib//arm-none-eabi/lib/libm.a(lib_a-k_rem_pio2.o)
 .debug_line    0x000000000000dce2      0x1a0 /usr/lib//arm-none-eabi/lib/libm.a(lib_a-k_sin.o)
 .debug_line    0x000000000000de82      0x344 /usr/lib//arm-none-eabi/lib/libm.a(lib_a-k_tan.o)
 .debug_line    0x000000000000e1c6      0x4d4 /usr/lib//arm-none-eabi/lib/libm.a(lib_a-s_expm1.o)
 .debug_line    0x000000000000e69a      0x110 /usr/lib//arm-none-eabi/lib/libm.a(lib_a-s_finite.o)
 .debug_line    0x000000000000e7aa       0x8e /usr/lib//arm-none-eabi/lib/libm.a(lib_a-s_lib_ver.o)
 .debug_line    0x000000000000e838       0xa5 /usr/lib//arm-none-eabi/lib/libm.a(lib_a-s_nan.o)
 .debug_line    0x000000000000e8dd      0x2a9 /usr/lib//arm-none-eabi/lib/libm.a(lib_a-s_rint.o)
 .debug_line    0x000000000000eb86      0x220 /usr/lib//arm-none-eabi/lib/libm.a(lib_a-s_scalbn.o)
 .debug_line    0x000000000000eda6      0x2dc /usr/lib//arm-none-eabi/lib/libm.a(lib_a-math_err.o)
 .debug_line    0x000000000000f082       0xa9 /usr/lib//arm-none-eabi/lib/libc.a(lib_a-atof.o)
 .debug_line    0x000000000000f12b      0x149 /usr/lib//arm-none-eabi/lib/libc.a(lib_a-atoi.o)
 .debug_line    0x000000000000f274      0x149 /usr/lib//arm-none-eabi/lib/libc.a(lib_a-atol.o)
 .debug_line    0x000000000000f3bd      0x130 /usr/lib//arm-none-eabi/lib/libc.a(lib_a-bsearch.o)
 .debug_line    0x000000000000f4ed       0x5e /usr/lib//arm-none-eabi/lib/libc.a(lib_a-ctype_.o)
 .debug_line    0x000000000000f54b      0x100 /usr/lib//arm-none-eabi/lib/libc.a(lib_a-errno.o)
 .debug_line    0x000000000000f64b       0xdb /usr/lib//arm-none-eabi/lib/libc.a(lib_a-impure.o)
 .debug_line    0x000000000000f726      0x15a /usr/lib//arm-none-eabi/lib/libc.a(lib_a-malloc.o)
 .debug_line    0x000000000000f880      0x8c3 /usr/lib//arm-none-eabi/lib/libc.a(lib_a-mallocr.o)
 .debug_line    0x0000000000010143      0x1b5 /usr/lib//arm-none-eabi/lib/libc.a(lib_a-memchr-stub.o)
 .debug_line    0x00000000000102f8      0x171 /usr/lib//arm-none-eabi/lib/libc.a(lib_a-memcmp.o)
 .debug_line    0x0000000000010469      0x1ba /usr/lib//arm-none-eabi/lib/libc.a(lib_a-memcpy-stub.o)
 .debug_line    0x0000000000010623      0x1fd /usr/lib//arm-none-eabi/lib/libc.a(lib_a-memmove.o)
 .debug_line    0x0000000000010820      0x1d5 /usr/lib//arm-none-eabi/lib/libc.a(lib_a-memset.o)
 .debug_line    0x00000000000109f5      0x135 /usr/lib//arm-none-eabi/lib/libc.a(lib_a-mlock.o)
 .debug_line    0x0000000000010b2a      0x8fb /usr/lib//arm-none-eabi/lib/libc.a(lib_a-qsort.o)
 .debug_line    0x0000000000011425      0x16c /usr/lib//arm-none-eabi/lib/libc.a(lib_a-rand.o)
 .debug_line    0x0000000000011591      0x192 /usr/lib//arm-none-eabi/lib/libc.a(lib_a-sbrkr.o)
 .debug_line    0x0000000000011723      0x1fc /usr/lib//arm-none-eabi/lib/libc.a(lib_a-sprintf.o)
 .debug_line    0x000000000001191f       0xeb /usr/lib//arm-none-eabi/lib/libc.a(lib_a-strcat.o)
 .debug_line    0x0000000000011a0a      0x1be /usr/lib//arm-none-eabi/lib/libc.a(lib_a-strchr.o)
 .debug_line    0x0000000000011bc8       0xb0 /usr/lib//arm-none-eabi/lib/libc.a(lib_a-strcpy.o)
 .debug_line    0x0000000000011c78      0x12f /usr/lib//arm-none-eabi/lib/libc.a(lib_a-strcspn.o)
 .debug_line    0x0000000000011da7      0x18f /usr/lib//arm-none-eabi/lib/libc.a(lib_a-strncat.o)
 .debug_line    0x0000000000011f36      0x17f /usr/lib//arm-none-eabi/lib/libc.a(lib_a-strncpy.o)
 .debug_line    0x00000000000120b5       0xe5 /usr/lib//arm-none-eabi/lib/libc.a(lib_a-strrchr.o)
 .debug_line    0x000000000001219a      0x12c /usr/lib//arm-none-eabi/lib/libc.a(lib_a-strspn.o)
 .debug_line    0x00000000000122c6      0x7bd /usr/lib//arm-none-eabi/lib/libc.a(lib_a-strstr.o)
 .debug_line    0x0000000000012a83     0x13b1 /usr/lib//arm-none-eabi/lib/libc.a(lib_a-strtod.o)
 .debug_line    0x0000000000013e34      0x148 /usr/lib//arm-none-eabi/lib/libc.a(lib_a-strtok.o)
 .debug_line    0x0000000000013f7c      0x18a /usr/lib//arm-none-eabi/lib/libc.a(lib_a-strtok_r.o)
 .debug_line    0x0000000000014106      0x423 /usr/lib//arm-none-eabi/lib/libc.a(lib_a-strtol.o)
 .debug_line    0x0000000000014529     0x17fe /usr/lib//arm-none-eabi/lib/libc.a(lib_a-svfprintf.o)
 .debug_line    0x0000000000015d27      0x20c /usr/lib//arm-none-eabi/lib/libc.a(lib_a-vsprintf.o)
 .debug_line    0x0000000000015f33     0x144b /usr/lib//arm-none-eabi/lib/libc.a(lib_a-dtoa.o)
 .debug_line    0x000000000001737e      0x4d2 /usr/lib//arm-none-eabi/lib/libc.a(lib_a-freer.o)
 .debug_line    0x0000000000017850      0xad5 /usr/lib//arm-none-eabi/lib/libc.a(lib_a-gdtoa-gethex.o)
 .debug_line    0x0000000000018325      0x3b7 /usr/lib//arm-none-eabi/lib/libc.a(lib_a-gdtoa-hexnan.o)
 .debug_line    0x00000000000186dc      0x158 /usr/lib//arm-none-eabi/lib/libc.a(lib_a-lnumeric.o)
 .debug_line    0x0000000000018834      0x234 /usr/lib//arm-none-eabi/lib/libc.a(lib_a-locale.o)
 .debug_line    0x0000000000018a68      0x1b6 /usr/lib//arm-none-eabi/lib/libc.a(lib_a-localeconv.o)
 .debug_line    0x0000000000018c1e      0x1f8 /usr/lib//arm-none-eabi/lib/libc.a(lib_a-mbtowc_r.o)
 .debug_line    0x0000000000018e16     0x1626 /usr/lib//arm-none-eabi/lib/libc.a(lib_a-mprec.o)
 .debug_line    0x000000000001a43c      0x272 /usr/lib//arm-none-eabi/lib/libc.a(lib_a-reent.o)
 .debug_line    0x000000000001a6ae       0xa4 /usr/lib//arm-none-eabi/lib/libc.a(lib_a-sf_nan.o)
 .debug_line    0x000000000001a752       0xf9 /usr/lib//arm-none-eabi/lib/libc.a(lib_a-strcmp.o)
 .debug_line    0x000000000001a84b       0xeb /usr/lib//arm-none-eabi/lib/libc.a(lib_a-strlen-stub.o)
 .debug_line    0x000000000001a936      0x1c2 /usr/lib//arm-none-eabi/lib/libc.a(lib_a-strncmp.o)
 .debug_line    0x000000000001aaf8      0x11c /usr/lib//arm-none-eabi/lib/libc.a(lib_a-strnlen.o)
 .debug_line    0x000000000001ac14      0xf60 /usr/lib//arm-none-eabi/lib/libc.a(lib_a-svfiprintf.o)
 .debug_line    0x000000000001bb74      0x1fb /usr/lib//arm-none-eabi/lib/libc.a(lib_a-wctomb_r.o)
 .debug_line    0x000000000001bd6f      0x171 /usr/lib//arm-none-eabi/lib/libc.a(lib_a-assert.o)
 .debug_line    0x000000000001bee0      0x1c9 /usr/lib//arm-none-eabi/lib/libc.a(lib_a-callocr.o)
 .debug_line    0x000000000001c0a9      0x193 /usr/lib//arm-none-eabi/lib/libc.a(lib_a-fiprintf.o)
 .debug_line    0x000000000001c23c      0x74b /usr/lib//arm-none-eabi/lib/libc.a(lib_a-reallocr.o)
 .debug_line    0x000000000001c987     0x1283 /usr/lib//arm-none-eabi/lib/libc.a(lib_a-vfiprintf.o)
 .debug_line    0x000000000001dc0a      0x317 /usr/lib//arm-none-eabi/lib/libc.a(lib_a-wsetup.o)
 .debug_line    0x000000000001df21      0x100 /usr/lib//arm-none-eabi/lib/libc.a(lib_a-abort.o)
 .debug_line    0x000000000001e021      0x46d /usr/lib//arm-none-eabi/lib/libc.a(lib_a-fflush.o)
 .debug_line    0x000000000001e48e      0x561 /usr/lib//arm-none-eabi/lib/libc.a(lib_a-findfp.o)
 .debug_line    0x000000000001e9ef      0x30b /usr/lib//arm-none-eabi/lib/libc.a(lib_a-fputwc.o)
 .debug_line    0x000000000001ecfa      0x5ef /usr/lib//arm-none-eabi/lib/libc.a(lib_a-fvwrite.o)
 .debug_line    0x000000000001f2e9      0x276 /usr/lib//arm-none-eabi/lib/libc.a(lib_a-fwalk.o)
 .debug_line    0x000000000001f55f      0x3b9 /usr/lib//arm-none-eabi/lib/libc.a(lib_a-makebuf.o)
 .debug_line    0x000000000001f918      0x5d2 /usr/lib//arm-none-eabi/lib/libc.a(lib_a-signal.o)
 .debug_line    0x000000000001feea      0x1ab /usr/lib//arm-none-eabi/lib/libc.a(lib_a-signalr.o)
 .debug_line    0x0000000000020095      0x226 /usr/lib//arm-none-eabi/lib/libc.a(lib_a-stdio.o)
 .debug_line    0x00000000000202bb      0x275 /usr/lib//arm-none-eabi/lib/libc.a(lib_a-wbuf.o)
 .debug_line    0x0000000000020530      0x27a /usr/lib//arm-none-eabi/lib/libc.a(lib_a-wcrtomb.o)
 .debug_line    0x00000000000207aa      0x183 /usr/lib//arm-none-eabi/lib/libc.a(lib_a-writer.o)
 .debug_line    0x000000000002092d      0x186 /usr/lib//arm-none-eabi/lib/libc.a(lib_a-closer.o)
 .debug_line    0x0000000000020ab3      0x29b /usr/lib//arm-none-eabi/lib/libc.a(lib_a-fclose.o)
 .debug_line    0x0000000000020d4e      0x1ff /usr/lib//arm-none-eabi/lib/libc.a(lib_a-fstatr.o)
 .debug_line    0x0000000000020f4d      0x187 /usr/lib//arm-none-eabi/lib/libc.a(lib_a-isattyr.o)
 .debug_line    0x00000000000210d4      0x183 /usr/lib//arm-none-eabi/lib/libc.a(lib_a-lseekr.o)
 .debug_line    0x0000000000021257      0x182 /usr/lib//arm-none-eabi/lib/libc.a(lib_a-readr.o)
 .debug_line    0x00000000000213d9       0x6c /usr/lib//arm-none-eabi/lib/libnosys.a(close.o)
 .debug_line    0x0000000000021445      0x136 /usr/lib//arm-none-eabi/lib/libnosys.a(fstat.o)
 .debug_line    0x000000000002157b       0x6d /usr/lib//arm-none-eabi/lib/libnosys.a(getpid.o)
 .debug_line    0x00000000000215e8       0x6d /usr/lib//arm-none-eabi/lib/libnosys.a(isatty.o)
 .debug_line    0x0000000000021655       0x6b /usr/lib//arm-none-eabi/lib/libnosys.a(kill.o)
 .debug_line    0x00000000000216c0       0x6d /usr/lib//arm-none-eabi/lib/libnosys.a(lseek.o)
 .debug_line    0x000000000002172d       0x6c /usr/lib//arm-none-eabi/lib/libnosys.a(read.o)
 .debug_line    0x0000000000021799       0x70 /usr/lib//arm-none-eabi/lib/libnosys.a(sbrk.o)
 .debug_line    0x0000000000021809       0x6d /usr/lib//arm-none-eabi/lib/libnosys.a(write.o)
 .debug_line    0x0000000000021876       0x6c /usr/lib//arm-none-eabi/lib/libnosys.a(_exit.o)
 .debug_line    0x00000000000218e2       0xf2 /usr/lib/gcc/arm-none-eabi/10.3.1/libgcc.a(_arm_muldf3.o)
 .debug_line    0x00000000000219d4       0xbd /usr/lib/gcc/arm-none-eabi/10.3.1/libgcc.a(_arm_mulsf3.o)
 .debug_line    0x0000000000021a91       0x74 /usr/lib/gcc/arm-none-eabi/10.3.1/libgcc.a(_udivsi3.o)
 .debug_line    0x0000000000021b05       0x80 /usr/lib/gcc/arm-none-eabi/10.3.1/libgcc.a(_divsi3.o)
 .debug_line    0x0000000000021b85       0x57 /usr/lib/gcc/arm-none-eabi/10.3.1/libgcc.a(_dvmd_tls.o)
 .debug_line    0x0000000000021bdc      0x166 /usr/lib/gcc/arm-none-eabi/10.3.1/libgcc.a(_arm_addsubdf3.o)
 .debug_line    0x0000000000021d42      0x175 /usr/lib/gcc/arm-none-eabi/10.3.1/libgcc.a(_arm_muldivdf3.o)
 .debug_line    0x0000000000021eb7       0xa8 /usr/lib/gcc/arm-none-eabi/10.3.1/libgcc.a(_arm_cmpdf2.o)
 .debug_line    0x0000000000021f5f       0x65 /usr/lib/gcc/arm-none-eabi/10.3.1/libgcc.a(_arm_unorddf2.o)
 .debug_line    0x0000000000021fc4       0x6e /usr/lib/gcc/arm-none-eabi/10.3.1/libgcc.a(_arm_fixdfsi.o)
 .debug_line    0x0000000000022032       0x6c /usr/lib/gcc/arm-none-eabi/10.3.1/libgcc.a(_arm_fixunsdfsi.o)
 .debug_line    0x000000000002209e       0x7f /usr/lib/gcc/arm-none-eabi/10.3.1/libgcc.a(_arm_truncdfsf2.o)
 .debug_line    0x000000000002211d      0x10d /usr/lib/gcc/arm-none-eabi/10.3.1/libgcc.a(_arm_addsubsf3.o)
 .debug_line    0x000000000002222a      0x117 /usr/lib/gcc/arm-none-eabi/10.3.1/libgcc.a(_arm_muldivsf3.o)
 .debug_line    0x0000000000022341       0x9c /usr/lib/gcc/arm-none-eabi/10.3.1/libgcc.a(_arm_cmpsf2.o)
 .debug_line    0x00000000000223dd       0x65 /usr/lib/gcc/arm-none-eabi/10.3.1/libgcc.a(_arm_unordsf2.o)
 .debug_line    0x0000000000022442       0x6e /usr/lib/gcc/arm-none-eabi/10.3.1/libgcc.a(_arm_fixsfsi.o)
 .debug_line    0x00000000000224b0       0x6c /usr/lib/gcc/arm-none-eabi/10.3.1/libgcc.a(_arm_fixunssfsi.o)
 .debug_line    0x000000000002251c       0x75 /usr/lib/gcc/arm-none-eabi/10.3.1/libgcc.a(_aeabi_ldivmod.o)
 .debug_line    0x0000000000022591       0x57 /usr/lib/gcc/arm-none-eabi/10.3.1/libgcc.a(_aeabi_uldivmod.o)
 .debug_line    0x00000000000225e8       0x9e /usr/lib/gcc/arm-none-eabi/10.3.1/libgcc.a(_fixsfdi.o)
 .debug_line    0x0000000000022686       0xa2 /usr/lib/gcc/arm-none-eabi/10.3.1/libgcc.a(_fixdfdi.o)
 .debug_line    0x0000000000022728       0xa5 /usr/lib/gcc/arm-none-eabi/10.3.1/libgcc.a(_fixunssfdi.o)
 .debug_line    0x00000000000227cd       0x9b /usr/lib/gcc/arm-none-eabi/10.3.1/libgcc.a(_fixunsdfdi.o)
 .debug_line    0x0000000000022868      0x171 /usr/lib/gcc/arm-none-eabi/10.3.1/libgcc.a(_udivmoddi4.o)
 .debug_line    0x00000000000229d9       0x61 /usr/lib/gcc/arm-none-eabi/10.3.1/libgcc.a(_clzdi2.o)
 .debug_line    0x0000000000022a3a       0x64 /usr/lib/gcc/arm-none-eabi/10.3.1/libgcc.a(_clzsi2.o)

.debug_str      0x0000000000000000     0x4b29
 .debug_str     0x0000000000000000      0x134 main.o
                                        0x172 (size before relaxing)
 .debug_str     0x0000000000000134       0x32 lpc2388/_init.o
                                        0x170 (size before relaxing)
 .debug_str     0x0000000000000166      0x65f lpc2388/ff.o
                                        0x7e5 (size before relaxing)
 .debug_str     0x00000000000007c5       0xe2 lpc2388/ffsdmm.o
                                        0x287 (size before relaxing)
 .debug_str     0x00000000000008a7       0xc9 lpc2388/lcdlib2388.o
                                        0x214 (size before relaxing)
 .debug_str     0x0000000000000970      0x133 lpc2388/malloc2388.o
                                        0x28b (size before relaxing)
 .debug_str     0x0000000000000aa3       0xdd lpc2388/rom_func.o
                                        0x256 (size before relaxing)
 .debug_str     0x0000000000000b80       0xcf lpc2388/tinymalloc.o
                                        0x2ec (size before relaxing)
 .debug_str     0x0000000000000c4f       0x4b lpc2388/uart.o
                                        0x18e (size before relaxing)
 .debug_str     0x0000000000000c9a       0xa8 lpc2388/vic_lpc23xx.o
                                        0x1e6 (size before relaxing)
 .debug_str     0x0000000000000d42       0x71 lpc2388/xprintf.o
                                        0x1b8 (size before relaxing)
 .debug_str     0x0000000000000db3      0x171 /usr/lib//arm-none-eabi/lib/libm.a(lib_a-s_atan.o)
                                        0x21e (size before relaxing)
 .debug_str     0x0000000000000f24       0xff /usr/lib//arm-none-eabi/lib/libm.a(lib_a-s_cbrt.o)
                                        0x21c (size before relaxing)
 .debug_str     0x0000000000001023       0x8b /usr/lib//arm-none-eabi/lib/libm.a(lib_a-s_ceil.o)
                                        0x1f5 (size before relaxing)
 .debug_str     0x00000000000010ae       0x55 /usr/lib//arm-none-eabi/lib/libm.a(lib_a-s_cos.o)
                                        0x1f2 (size before relaxing)
 .debug_str     0x0000000000001103       0x68 /usr/lib//arm-none-eabi/lib/libm.a(lib_a-s_erf.o)
                                        0x231 (size before relaxing)
 .debug_str     0x000000000000116b       0x29 /usr/lib//arm-none-eabi/lib/libm.a(lib_a-s_fabs.o)
                                        0x1be (size before relaxing)
 .debug_str     0x0000000000001194       0x3a /usr/lib//arm-none-eabi/lib/libm.a(lib_a-s_floor.o)
                                        0x1f7 (size before relaxing)
 .debug_str     0x00000000000011ce       0x35 /usr/lib//arm-none-eabi/lib/libm.a(lib_a-s_modf.o)
                                        0x1f0 (size before relaxing)
 .debug_str     0x0000000000001203       0x5b /usr/lib//arm-none-eabi/lib/libm.a(lib_a-s_round.o)
                                        0x204 (size before relaxing)
 .debug_str     0x000000000000125e       0x28 /usr/lib//arm-none-eabi/lib/libm.a(lib_a-s_sin.o)
                                        0x1f2 (size before relaxing)
 .debug_str     0x0000000000001286       0x35 /usr/lib//arm-none-eabi/lib/libm.a(lib_a-s_tan.o)
                                        0x1e5 (size before relaxing)
 .debug_str     0x00000000000012bb       0x34 /usr/lib//arm-none-eabi/lib/libm.a(lib_a-s_tanh.o)
                                        0x202 (size before relaxing)
 .debug_str     0x00000000000012ef       0x42 /usr/lib//arm-none-eabi/lib/libm.a(lib_a-s_trunc.o)
                                        0x1f4 (size before relaxing)
 .debug_str     0x0000000000001331       0x8d /usr/lib//arm-none-eabi/lib/libm.a(lib_a-w_acos.o)
                                        0x1f9 (size before relaxing)
 .debug_str     0x00000000000013be       0x38 /usr/lib//arm-none-eabi/lib/libm.a(lib_a-w_asin.o)
                                        0x1f9 (size before relaxing)
 .debug_str     0x00000000000013f6       0x3a /usr/lib//arm-none-eabi/lib/libm.a(lib_a-w_atan2.o)
                                        0x193 (size before relaxing)
 .debug_str     0x0000000000001430       0x38 /usr/lib//arm-none-eabi/lib/libm.a(lib_a-w_cosh.o)
                                        0x1f9 (size before relaxing)
 .debug_str     0x0000000000001468       0x4f /usr/lib//arm-none-eabi/lib/libm.a(lib_a-w_exp.o)
                                        0x20c (size before relaxing)
 .debug_str     0x00000000000014b7       0x47 /usr/lib//arm-none-eabi/lib/libm.a(lib_a-w_fmod.o)
                                        0x201 (size before relaxing)
 .debug_str     0x00000000000014fe       0x3a /usr/lib//arm-none-eabi/lib/libm.a(lib_a-w_hypot.o)
                                        0x1e0 (size before relaxing)
 .debug_str     0x0000000000001538       0x36 /usr/lib//arm-none-eabi/lib/libm.a(lib_a-w_log.o)
                                        0x1fc (size before relaxing)
 .debug_str     0x000000000000156e       0x49 /usr/lib//arm-none-eabi/lib/libm.a(lib_a-w_log10.o)
                                        0x206 (size before relaxing)
 .debug_str     0x00000000000015b7       0x3b /usr/lib//arm-none-eabi/lib/libm.a(lib_a-w_pow.o)
                                        0x215 (size before relaxing)
 .debug_str     0x00000000000015f2       0x38 /usr/lib//arm-none-eabi/lib/libm.a(lib_a-w_sinh.o)
                                        0x1ec (size before relaxing)
 .debug_str     0x000000000000162a       0x38 /usr/lib//arm-none-eabi/lib/libm.a(lib_a-w_sqrt.o)
                                        0x201 (size before relaxing)
 .debug_str     0x0000000000001662       0x39 /usr/lib//arm-none-eabi/lib/libm.a(lib_a-e_acos.o)
                                        0x225 (size before relaxing)
 .debug_str     0x000000000000169b       0x31 /usr/lib//arm-none-eabi/lib/libm.a(lib_a-e_asin.o)
                                        0x246 (size before relaxing)
 .debug_str     0x00000000000016cc       0x3e /usr/lib//arm-none-eabi/lib/libm.a(lib_a-e_atan2.o)
                                        0x223 (size before relaxing)
 .debug_str     0x000000000000170a       0x29 /usr/lib//arm-none-eabi/lib/libm.a(lib_a-e_cosh.o)
                                        0x217 (size before relaxing)
 .debug_str     0x0000000000001733       0x56 /usr/lib//arm-none-eabi/lib/libm.a(lib_a-e_exp.o)
                                        0x279 (size before relaxing)
 .debug_str     0x0000000000001789       0x29 /usr/lib//arm-none-eabi/lib/libm.a(lib_a-e_fmod.o)
                                        0x1ec (size before relaxing)
 .debug_str     0x00000000000017b2       0x2a /usr/lib//arm-none-eabi/lib/libm.a(lib_a-e_hypot.o)
                                        0x21e (size before relaxing)
 .debug_str     0x00000000000017dc       0x41 /usr/lib//arm-none-eabi/lib/libm.a(lib_a-e_log.o)
                                        0x23d (size before relaxing)
 .debug_str     0x000000000000181d       0x45 /usr/lib//arm-none-eabi/lib/libm.a(lib_a-e_log10.o)
                                        0x248 (size before relaxing)
 .debug_str     0x0000000000001862       0x81 /usr/lib//arm-none-eabi/lib/libm.a(lib_a-e_pow.o)
                                        0x2a0 (size before relaxing)
 .debug_str     0x00000000000018e3       0x8f /usr/lib//arm-none-eabi/lib/libm.a(lib_a-e_rem_pio2.o)
                                        0x2a4 (size before relaxing)
 .debug_str     0x0000000000001972       0x2f /usr/lib//arm-none-eabi/lib/libm.a(lib_a-e_sinh.o)
                                        0x22f (size before relaxing)
 .debug_str     0x00000000000019a1       0x33 /usr/lib//arm-none-eabi/lib/libm.a(lib_a-e_sqrt.o)
                                        0x21c (size before relaxing)
 .debug_str     0x00000000000019d4       0x28 /usr/lib//arm-none-eabi/lib/libm.a(lib_a-k_cos.o)
                                        0x1fe (size before relaxing)
 .debug_str     0x00000000000019fc       0x57 /usr/lib//arm-none-eabi/lib/libm.a(lib_a-k_rem_pio2.o)
                                        0x241 (size before relaxing)
 .debug_str     0x0000000000001a53       0x28 /usr/lib//arm-none-eabi/lib/libm.a(lib_a-k_sin.o)
                                        0x1fe (size before relaxing)
 .debug_str     0x0000000000001a7b       0x34 /usr/lib//arm-none-eabi/lib/libm.a(lib_a-k_tan.o)
                                        0x22d (size before relaxing)
 .debug_str     0x0000000000001aaf       0x39 /usr/lib//arm-none-eabi/lib/libm.a(lib_a-s_expm1.o)
                                        0x283 (size before relaxing)
 .debug_str     0x0000000000001ae8       0x2d /usr/lib//arm-none-eabi/lib/libm.a(lib_a-s_finite.o)
                                        0x1d3 (size before relaxing)
 .debug_str     0x0000000000001b15       0x2e /usr/lib//arm-none-eabi/lib/libm.a(lib_a-s_lib_ver.o)
                                        0x1ce (size before relaxing)
 .debug_str     0x0000000000001b43       0x2a /usr/lib//arm-none-eabi/lib/libm.a(lib_a-s_nan.o)
                                        0x193 (size before relaxing)
 .debug_str     0x0000000000001b6d       0x39 /usr/lib//arm-none-eabi/lib/libm.a(lib_a-s_rint.o)
                                        0x1fe (size before relaxing)
 .debug_str     0x0000000000001ba6       0x34 /usr/lib//arm-none-eabi/lib/libm.a(lib_a-s_scalbn.o)
                                        0x20e (size before relaxing)
 .debug_str     0x0000000000001bda       0xb3 /usr/lib//arm-none-eabi/lib/libm.a(lib_a-math_err.o)
                                        0x297 (size before relaxing)
 .debug_str     0x0000000000001c8d       0x7e /usr/lib//arm-none-eabi/lib/libc.a(lib_a-atof.o)
                                        0x184 (size before relaxing)
 .debug_str     0x0000000000001d0b      0x38b /usr/lib//arm-none-eabi/lib/libc.a(lib_a-atoi.o)
                                        0x54f (size before relaxing)
 .debug_str     0x0000000000002096       0x36 /usr/lib//arm-none-eabi/lib/libc.a(lib_a-atol.o)
                                        0x54f (size before relaxing)
 .debug_str     0x00000000000020cc       0x9e /usr/lib//arm-none-eabi/lib/libc.a(lib_a-bsearch.o)
                                        0x1bb (size before relaxing)
 .debug_str     0x000000000000216a       0x72 /usr/lib//arm-none-eabi/lib/libc.a(lib_a-ctype_.o)
                                        0x179 (size before relaxing)
 .debug_str     0x00000000000021dc       0x71 /usr/lib//arm-none-eabi/lib/libc.a(lib_a-errno.o)
                                        0x544 (size before relaxing)
 .debug_str     0x000000000000224d       0x91 /usr/lib//arm-none-eabi/lib/libc.a(lib_a-impure.o)
                                        0x55c (size before relaxing)
 .debug_str     0x00000000000022de       0x49 /usr/lib//arm-none-eabi/lib/libc.a(lib_a-malloc.o)
                                        0x570 (size before relaxing)
 .debug_str     0x0000000000002327      0x20e /usr/lib//arm-none-eabi/lib/libc.a(lib_a-mallocr.o)
                                        0x761 (size before relaxing)
 .debug_str     0x0000000000002535       0xa2 /usr/lib//arm-none-eabi/lib/libc.a(lib_a-memchr-stub.o)
                                        0x1ad (size before relaxing)
 .debug_str     0x00000000000025d7       0x7b /usr/lib//arm-none-eabi/lib/libc.a(lib_a-memcmp.o)
                                        0x181 (size before relaxing)
 .debug_str     0x0000000000002652       0x66 /usr/lib//arm-none-eabi/lib/libc.a(lib_a-memcpy-stub.o)
                                        0x1ba (size before relaxing)
 .debug_str     0x00000000000026b8       0x3d /usr/lib//arm-none-eabi/lib/libc.a(lib_a-memmove.o)
                                        0x1b4 (size before relaxing)
 .debug_str     0x00000000000026f5       0x46 /usr/lib//arm-none-eabi/lib/libc.a(lib_a-memset.o)
                                        0x195 (size before relaxing)
 .debug_str     0x000000000000273b       0x43 /usr/lib//arm-none-eabi/lib/libc.a(lib_a-mlock.o)
                                        0x569 (size before relaxing)
 .debug_str     0x000000000000277e       0x95 /usr/lib//arm-none-eabi/lib/libc.a(lib_a-qsort.o)
                                        0x1e9 (size before relaxing)
 .debug_str     0x0000000000002813       0x2f /usr/lib//arm-none-eabi/lib/libc.a(lib_a-rand.o)
                                        0x553 (size before relaxing)
 .debug_str     0x0000000000002842       0x3e /usr/lib//arm-none-eabi/lib/libc.a(lib_a-sbrkr.o)
                                        0x553 (size before relaxing)
 .debug_str     0x0000000000002880       0x8b /usr/lib//arm-none-eabi/lib/libc.a(lib_a-sprintf.o)
                                        0x589 (size before relaxing)
 .debug_str     0x000000000000290b       0x44 /usr/lib//arm-none-eabi/lib/libc.a(lib_a-strcat.o)
                                        0x18c (size before relaxing)
 .debug_str     0x000000000000294f       0x32 /usr/lib//arm-none-eabi/lib/libc.a(lib_a-strchr.o)
                                        0x18c (size before relaxing)
 .debug_str     0x0000000000002981       0x33 /usr/lib//arm-none-eabi/lib/libc.a(lib_a-strcpy.o)
                                        0x187 (size before relaxing)
 .debug_str     0x00000000000029b4       0x34 /usr/lib//arm-none-eabi/lib/libc.a(lib_a-strcspn.o)
                                        0x183 (size before relaxing)
 .debug_str     0x00000000000029e8       0x34 /usr/lib//arm-none-eabi/lib/libc.a(lib_a-strncat.o)
                                        0x18e (size before relaxing)
 .debug_str     0x0000000000002a1c       0x34 /usr/lib//arm-none-eabi/lib/libc.a(lib_a-strncpy.o)
                                        0x1ab (size before relaxing)
 .debug_str     0x0000000000002a50       0x34 /usr/lib//arm-none-eabi/lib/libc.a(lib_a-strrchr.o)
                                        0x188 (size before relaxing)
 .debug_str     0x0000000000002a84       0x32 /usr/lib//arm-none-eabi/lib/libc.a(lib_a-strspn.o)
                                        0x181 (size before relaxing)
 .debug_str     0x0000000000002ab6       0xf1 /usr/lib//arm-none-eabi/lib/libc.a(lib_a-strstr.o)
                                        0x285 (size before relaxing)
 .debug_str     0x0000000000002ba7      0x478 /usr/lib//arm-none-eabi/lib/libc.a(lib_a-strtod.o)
                                        0xb33 (size before relaxing)
 .debug_str     0x000000000000301f       0x3d /usr/lib//arm-none-eabi/lib/libc.a(lib_a-strtok.o)
                                        0x55d (size before relaxing)
 .debug_str     0x000000000000305c       0x4c /usr/lib//arm-none-eabi/lib/libc.a(lib_a-strtok_r.o)
                                        0x1b3 (size before relaxing)
 .debug_str     0x00000000000030a8       0x60 /usr/lib//arm-none-eabi/lib/libc.a(lib_a-strtol.o)
                                        0x7c8 (size before relaxing)
 .debug_str     0x0000000000003108      0x194 /usr/lib//arm-none-eabi/lib/libc.a(lib_a-svfprintf.o)
                                        0x977 (size before relaxing)
 .debug_str     0x000000000000329c       0x38 /usr/lib//arm-none-eabi/lib/libc.a(lib_a-vsprintf.o)
                                        0x58c (size before relaxing)
 .debug_str     0x00000000000032d4       0xe3 /usr/lib//arm-none-eabi/lib/libc.a(lib_a-dtoa.o)
                                        0x931 (size before relaxing)
 .debug_str     0x00000000000033b7       0x34 /usr/lib//arm-none-eabi/lib/libc.a(lib_a-freer.o)
                                        0x6ab (size before relaxing)
 .debug_str     0x00000000000033eb       0xc9 /usr/lib//arm-none-eabi/lib/libc.a(lib_a-gdtoa-gethex.o)
                                        0x977 (size before relaxing)
 .debug_str     0x00000000000034b4       0x39 /usr/lib//arm-none-eabi/lib/libc.a(lib_a-gdtoa-hexnan.o)
                                        0x2ac (size before relaxing)
 .debug_str     0x00000000000034ed       0xab /usr/lib//arm-none-eabi/lib/libc.a(lib_a-lnumeric.o)
                                        0x773 (size before relaxing)
 .debug_str     0x0000000000003598       0x72 /usr/lib//arm-none-eabi/lib/libc.a(lib_a-locale.o)
                                        0x7ac (size before relaxing)
 .debug_str     0x000000000000360a       0x58 /usr/lib//arm-none-eabi/lib/libc.a(lib_a-localeconv.o)
                                        0x791 (size before relaxing)
 .debug_str     0x0000000000003662       0x4c /usr/lib//arm-none-eabi/lib/libc.a(lib_a-mbtowc_r.o)
                                        0x771 (size before relaxing)
 .debug_str     0x00000000000036ae       0x6d /usr/lib//arm-none-eabi/lib/libc.a(lib_a-mprec.o)
                                        0x861 (size before relaxing)
 .debug_str     0x000000000000371b       0x55 /usr/lib//arm-none-eabi/lib/libc.a(lib_a-reent.o)
                                        0x57b (size before relaxing)
 .debug_str     0x0000000000003770       0x2b /usr/lib//arm-none-eabi/lib/libc.a(lib_a-sf_nan.o)
                                        0x199 (size before relaxing)
 .debug_str     0x000000000000379b       0x45 /usr/lib//arm-none-eabi/lib/libc.a(lib_a-strcmp.o)
                                         0x93 (size before relaxing)
 .debug_str     0x00000000000037e0       0x38 /usr/lib//arm-none-eabi/lib/libc.a(lib_a-strlen-stub.o)
                                        0x193 (size before relaxing)
 .debug_str     0x0000000000003818       0x2c /usr/lib//arm-none-eabi/lib/libc.a(lib_a-strncmp.o)
                                        0x183 (size before relaxing)
 .debug_str     0x0000000000003844       0x32 /usr/lib//arm-none-eabi/lib/libc.a(lib_a-strnlen.o)
                                        0x189 (size before relaxing)
 .debug_str     0x0000000000003876       0x28 /usr/lib//arm-none-eabi/lib/libc.a(lib_a-svfiprintf.o)
                                        0x8bc (size before relaxing)
 .debug_str     0x000000000000389e       0x4d /usr/lib//arm-none-eabi/lib/libc.a(lib_a-wctomb_r.o)
                                        0x778 (size before relaxing)
 .debug_str     0x00000000000038eb       0x4a /usr/lib//arm-none-eabi/lib/libc.a(lib_a-assert.o)
                                        0x57f (size before relaxing)
 .debug_str     0x0000000000003935        0xf /usr/lib//arm-none-eabi/lib/libc.a(lib_a-callocr.o)
                                        0x595 (size before relaxing)
 .debug_str     0x0000000000003944       0x45 /usr/lib//arm-none-eabi/lib/libc.a(lib_a-fiprintf.o)
                                        0x58c (size before relaxing)
 .debug_str     0x0000000000003989       0x4e /usr/lib//arm-none-eabi/lib/libc.a(lib_a-reallocr.o)
                                        0x63d (size before relaxing)
 .debug_str     0x00000000000039d7       0x6a /usr/lib//arm-none-eabi/lib/libc.a(lib_a-vfiprintf.o)
                                        0x8f6 (size before relaxing)
 .debug_str     0x0000000000003a41       0x37 /usr/lib//arm-none-eabi/lib/libc.a(lib_a-wsetup.o)
                                        0x57b (size before relaxing)
 .debug_str     0x0000000000003a78       0x36 /usr/lib//arm-none-eabi/lib/libc.a(lib_a-abort.o)
                                        0x184 (size before relaxing)
 .debug_str     0x0000000000003aae       0x5a /usr/lib//arm-none-eabi/lib/libc.a(lib_a-fflush.o)
                                        0x5bc (size before relaxing)
 .debug_str     0x0000000000003b08      0x140 /usr/lib//arm-none-eabi/lib/libc.a(lib_a-findfp.o)
                                        0x6b0 (size before relaxing)
 .debug_str     0x0000000000003c48       0x52 /usr/lib//arm-none-eabi/lib/libc.a(lib_a-fputwc.o)
                                        0x5c1 (size before relaxing)
 .debug_str     0x0000000000003c9a       0x47 /usr/lib//arm-none-eabi/lib/libc.a(lib_a-fvwrite.o)
                                        0x5fb (size before relaxing)
 .debug_str     0x0000000000003ce1       0x38 /usr/lib//arm-none-eabi/lib/libc.a(lib_a-fwalk.o)
                                        0x561 (size before relaxing)
 .debug_str     0x0000000000003d19      0x158 /usr/lib//arm-none-eabi/lib/libc.a(lib_a-makebuf.o)
                                        0x6dd (size before relaxing)
 .debug_str     0x0000000000003e71       0xda /usr/lib//arm-none-eabi/lib/libc.a(lib_a-signal.o)
                                        0x5cb (size before relaxing)
 .debug_str     0x0000000000003f4b       0x39 /usr/lib//arm-none-eabi/lib/libc.a(lib_a-signalr.o)
                                        0x558 (size before relaxing)
 .debug_str     0x0000000000003f84       0x89 /usr/lib//arm-none-eabi/lib/libc.a(lib_a-stdio.o)
                                        0x5b0 (size before relaxing)
 .debug_str     0x000000000000400d       0x30 /usr/lib//arm-none-eabi/lib/libc.a(lib_a-wbuf.o)
                                        0x580 (size before relaxing)
 .debug_str     0x000000000000403d       0x34 /usr/lib//arm-none-eabi/lib/libc.a(lib_a-wcrtomb.o)
                                        0x777 (size before relaxing)
 .debug_str     0x0000000000004071       0x2a /usr/lib//arm-none-eabi/lib/libc.a(lib_a-writer.o)
                                        0x550 (size before relaxing)
 .debug_str     0x000000000000409b       0x2a /usr/lib//arm-none-eabi/lib/libc.a(lib_a-closer.o)
                                        0x540 (size before relaxing)
 .debug_str     0x00000000000040c5       0x3b /usr/lib//arm-none-eabi/lib/libc.a(lib_a-fclose.o)
                                        0x5a9 (size before relaxing)
 .debug_str     0x0000000000004100       0x37 /usr/lib//arm-none-eabi/lib/libc.a(lib_a-fstatr.o)
                                        0x692 (size before relaxing)
 .debug_str     0x0000000000004137       0x33 /usr/lib//arm-none-eabi/lib/libc.a(lib_a-isattyr.o)
                                        0x54a (size before relaxing)
 .debug_str     0x000000000000416a       0x2a /usr/lib//arm-none-eabi/lib/libc.a(lib_a-lseekr.o)
                                        0x54e (size before relaxing)
 .debug_str     0x0000000000004194       0x29 /usr/lib//arm-none-eabi/lib/libc.a(lib_a-readr.o)
                                        0x54e (size before relaxing)
 .debug_str     0x00000000000041bd       0xdd /usr/lib//arm-none-eabi/lib/libnosys.a(close.o)
                                        0x17f (size before relaxing)
 .debug_str     0x000000000000429a       0x26 /usr/lib//arm-none-eabi/lib/libnosys.a(fstat.o)
                                        0x2cb (size before relaxing)
 .debug_str     0x00000000000042c0       0x27 /usr/lib//arm-none-eabi/lib/libnosys.a(getpid.o)
                                        0x17a (size before relaxing)
 .debug_str     0x00000000000042e7       0x27 /usr/lib//arm-none-eabi/lib/libnosys.a(isatty.o)
                                        0x17f (size before relaxing)
 .debug_str     0x000000000000430e       0x25 /usr/lib//arm-none-eabi/lib/libnosys.a(kill.o)
                                        0x176 (size before relaxing)
 .debug_str     0x0000000000004333       0x26 /usr/lib//arm-none-eabi/lib/libnosys.a(lseek.o)
                                        0x17d (size before relaxing)
 .debug_str     0x0000000000004359       0x25 /usr/lib//arm-none-eabi/lib/libnosys.a(read.o)
                                        0x17b (size before relaxing)
 .debug_str     0x000000000000437e       0x33 /usr/lib//arm-none-eabi/lib/libnosys.a(sbrk.o)
                                         0xfc (size before relaxing)
 .debug_str     0x00000000000043b1       0x26 /usr/lib//arm-none-eabi/lib/libnosys.a(write.o)
                                        0x17d (size before relaxing)
 .debug_str     0x00000000000043d7       0x26 /usr/lib//arm-none-eabi/lib/libnosys.a(_exit.o)
                                        0x16c (size before relaxing)
 .debug_str     0x00000000000043fd       0x82 /usr/lib/gcc/arm-none-eabi/10.3.1/libgcc.a(_arm_muldf3.o)
                                         0x8e (size before relaxing)
 .debug_str     0x000000000000447f       0x28 /usr/lib/gcc/arm-none-eabi/10.3.1/libgcc.a(_arm_mulsf3.o)
                                         0x8e (size before relaxing)
 .debug_str     0x00000000000044a7       0x27 /usr/lib/gcc/arm-none-eabi/10.3.1/libgcc.a(_udivsi3.o)
                                         0x8d (size before relaxing)
 .debug_str     0x00000000000044ce       0x8d /usr/lib/gcc/arm-none-eabi/10.3.1/libgcc.a(_divsi3.o)
 .debug_str     0x00000000000044ce       0x8d /usr/lib/gcc/arm-none-eabi/10.3.1/libgcc.a(_dvmd_tls.o)
 .debug_str     0x00000000000044ce       0x8e /usr/lib/gcc/arm-none-eabi/10.3.1/libgcc.a(_arm_addsubdf3.o)
 .debug_str     0x00000000000044ce       0x8e /usr/lib/gcc/arm-none-eabi/10.3.1/libgcc.a(_arm_muldivdf3.o)
 .debug_str     0x00000000000044ce       0x8e /usr/lib/gcc/arm-none-eabi/10.3.1/libgcc.a(_arm_cmpdf2.o)
 .debug_str     0x00000000000044ce       0x8e /usr/lib/gcc/arm-none-eabi/10.3.1/libgcc.a(_arm_unorddf2.o)
 .debug_str     0x00000000000044ce       0x8e /usr/lib/gcc/arm-none-eabi/10.3.1/libgcc.a(_arm_fixdfsi.o)
 .debug_str     0x00000000000044ce       0x8e /usr/lib/gcc/arm-none-eabi/10.3.1/libgcc.a(_arm_fixunsdfsi.o)
 .debug_str     0x00000000000044ce       0x8e /usr/lib/gcc/arm-none-eabi/10.3.1/libgcc.a(_arm_truncdfsf2.o)
 .debug_str     0x00000000000044ce       0x8e /usr/lib/gcc/arm-none-eabi/10.3.1/libgcc.a(_arm_addsubsf3.o)
 .debug_str     0x00000000000044ce       0x8e /usr/lib/gcc/arm-none-eabi/10.3.1/libgcc.a(_arm_muldivsf3.o)
 .debug_str     0x00000000000044ce       0x8e /usr/lib/gcc/arm-none-eabi/10.3.1/libgcc.a(_arm_cmpsf2.o)
 .debug_str     0x00000000000044ce       0x8e /usr/lib/gcc/arm-none-eabi/10.3.1/libgcc.a(_arm_unordsf2.o)
 .debug_str     0x00000000000044ce       0x8e /usr/lib/gcc/arm-none-eabi/10.3.1/libgcc.a(_arm_fixsfsi.o)
 .debug_str     0x00000000000044ce       0x8e /usr/lib/gcc/arm-none-eabi/10.3.1/libgcc.a(_arm_fixunssfsi.o)
 .debug_str     0x00000000000044ce       0x23 /usr/lib/gcc/arm-none-eabi/10.3.1/libgcc.a(_aeabi_ldivmod.o)
                                         0x89 (size before relaxing)
 .debug_str     0x00000000000044f1       0x89 /usr/lib/gcc/arm-none-eabi/10.3.1/libgcc.a(_aeabi_uldivmod.o)
 .debug_str     0x00000000000044f1      0x51b /usr/lib/gcc/arm-none-eabi/10.3.1/libgcc.a(_fixsfdi.o)
                                        0x603 (size before relaxing)
 .debug_str     0x0000000000004a0c       0x2c /usr/lib/gcc/arm-none-eabi/10.3.1/libgcc.a(_fixdfdi.o)
                                        0x603 (size before relaxing)
 .debug_str     0x0000000000004a38       0x1c /usr/lib/gcc/arm-none-eabi/10.3.1/libgcc.a(_fixunssfdi.o)
                                        0x62d (size before relaxing)
 .debug_str     0x0000000000004a54      0x61a /usr/lib/gcc/arm-none-eabi/10.3.1/libgcc.a(_fixunsdfdi.o)
 .debug_str     0x0000000000004a54       0xd5 /usr/lib/gcc/arm-none-eabi/10.3.1/libgcc.a(_udivmoddi4.o)
                                        0x5f4 (size before relaxing)
 .debug_str     0x0000000000004b29       0x8d /usr/lib/gcc/arm-none-eabi/10.3.1/libgcc.a(_clzdi2.o)
 .debug_str     0x0000000000004b29       0x8d /usr/lib/gcc/arm-none-eabi/10.3.1/libgcc.a(_clzsi2.o)

.debug_frame    0x0000000000000000     0x48e8
 .debug_frame   0x0000000000000000       0x28 main.o
 .debug_frame   0x0000000000000028       0x30 lpc2388/_init.o
 .debug_frame   0x0000000000000058      0xa68 lpc2388/ff.o
 .debug_frame   0x0000000000000ac0      0x218 lpc2388/ffsdmm.o
 .debug_frame   0x0000000000000cd8      0x17c lpc2388/lcdlib2388.o
 .debug_frame   0x0000000000000e54       0x78 lpc2388/malloc2388.o
 .debug_frame   0x0000000000000ecc      0x118 lpc2388/rom_func.o
 .debug_frame   0x0000000000000fe4       0xa0 lpc2388/tinymalloc.o
 .debug_frame   0x0000000000001084       0x6c lpc2388/uart.o
 .debug_frame   0x00000000000010f0       0x94 lpc2388/vic_lpc23xx.o
 .debug_frame   0x0000000000001184      0x1e8 lpc2388/xprintf.o
 .debug_frame   0x000000000000136c       0x7c /usr/lib//arm-none-eabi/lib/libm.a(lib_a-s_atan.o)
 .debug_frame   0x00000000000013e8       0x60 /usr/lib//arm-none-eabi/lib/libm.a(lib_a-s_cbrt.o)
 .debug_frame   0x0000000000001448       0x3c /usr/lib//arm-none-eabi/lib/libm.a(lib_a-s_ceil.o)
 .debug_frame   0x0000000000001484       0x38 /usr/lib//arm-none-eabi/lib/libm.a(lib_a-s_cos.o)
 .debug_frame   0x00000000000014bc       0xf8 /usr/lib//arm-none-eabi/lib/libm.a(lib_a-s_erf.o)
 .debug_frame   0x00000000000015b4       0x20 /usr/lib//arm-none-eabi/lib/libm.a(lib_a-s_fabs.o)
 .debug_frame   0x00000000000015d4       0x3c /usr/lib//arm-none-eabi/lib/libm.a(lib_a-s_floor.o)
 .debug_frame   0x0000000000001610       0x68 /usr/lib//arm-none-eabi/lib/libm.a(lib_a-s_modf.o)
 .debug_frame   0x0000000000001678       0x38 /usr/lib//arm-none-eabi/lib/libm.a(lib_a-s_round.o)
 .debug_frame   0x00000000000016b0       0x38 /usr/lib//arm-none-eabi/lib/libm.a(lib_a-s_sin.o)
 .debug_frame   0x00000000000016e8       0x48 /usr/lib//arm-none-eabi/lib/libm.a(lib_a-s_tan.o)
 .debug_frame   0x0000000000001730       0x54 /usr/lib//arm-none-eabi/lib/libm.a(lib_a-s_tanh.o)
 .debug_frame   0x0000000000001784       0x3c /usr/lib//arm-none-eabi/lib/libm.a(lib_a-s_trunc.o)
 .debug_frame   0x00000000000017c0       0x44 /usr/lib//arm-none-eabi/lib/libm.a(lib_a-w_acos.o)
 .debug_frame   0x0000000000001804       0x44 /usr/lib//arm-none-eabi/lib/libm.a(lib_a-w_asin.o)
 .debug_frame   0x0000000000001848       0x2c /usr/lib//arm-none-eabi/lib/libm.a(lib_a-w_atan2.o)
 .debug_frame   0x0000000000001874       0x44 /usr/lib//arm-none-eabi/lib/libm.a(lib_a-w_cosh.o)
 .debug_frame   0x00000000000018b8       0x3c /usr/lib//arm-none-eabi/lib/libm.a(lib_a-w_exp.o)
 .debug_frame   0x00000000000018f4       0x50 /usr/lib//arm-none-eabi/lib/libm.a(lib_a-w_fmod.o)
 .debug_frame   0x0000000000001944       0x44 /usr/lib//arm-none-eabi/lib/libm.a(lib_a-w_hypot.o)
 .debug_frame   0x0000000000001988       0x48 /usr/lib//arm-none-eabi/lib/libm.a(lib_a-w_log.o)
 .debug_frame   0x00000000000019d0       0x48 /usr/lib//arm-none-eabi/lib/libm.a(lib_a-w_log10.o)
 .debug_frame   0x0000000000001a18       0x54 /usr/lib//arm-none-eabi/lib/libm.a(lib_a-w_pow.o)
 .debug_frame   0x0000000000001a6c       0x44 /usr/lib//arm-none-eabi/lib/libm.a(lib_a-w_sinh.o)
 .debug_frame   0x0000000000001ab0       0x44 /usr/lib//arm-none-eabi/lib/libm.a(lib_a-w_sqrt.o)
 .debug_frame   0x0000000000001af4       0xa8 /usr/lib//arm-none-eabi/lib/libm.a(lib_a-e_acos.o)
 .debug_frame   0x0000000000001b9c       0x48 /usr/lib//arm-none-eabi/lib/libm.a(lib_a-e_asin.o)
 .debug_frame   0x0000000000001be4       0x4c /usr/lib//arm-none-eabi/lib/libm.a(lib_a-e_atan2.o)
 .debug_frame   0x0000000000001c30       0x58 /usr/lib//arm-none-eabi/lib/libm.a(lib_a-e_cosh.o)
 .debug_frame   0x0000000000001c88       0x4c /usr/lib//arm-none-eabi/lib/libm.a(lib_a-e_exp.o)
 .debug_frame   0x0000000000001cd4       0x50 /usr/lib//arm-none-eabi/lib/libm.a(lib_a-e_fmod.o)
 .debug_frame   0x0000000000001d24       0x4c /usr/lib//arm-none-eabi/lib/libm.a(lib_a-e_hypot.o)
 .debug_frame   0x0000000000001d70       0x84 /usr/lib//arm-none-eabi/lib/libm.a(lib_a-e_log.o)
 .debug_frame   0x0000000000001df4       0x60 /usr/lib//arm-none-eabi/lib/libm.a(lib_a-e_log10.o)
 .debug_frame   0x0000000000001e54       0x4c /usr/lib//arm-none-eabi/lib/libm.a(lib_a-e_pow.o)
 .debug_frame   0x0000000000001ea0       0x70 /usr/lib//arm-none-eabi/lib/libm.a(lib_a-e_rem_pio2.o)
 .debug_frame   0x0000000000001f10       0x70 /usr/lib//arm-none-eabi/lib/libm.a(lib_a-e_sinh.o)
 .debug_frame   0x0000000000001f80       0x48 /usr/lib//arm-none-eabi/lib/libm.a(lib_a-e_sqrt.o)
 .debug_frame   0x0000000000001fc8       0x70 /usr/lib//arm-none-eabi/lib/libm.a(lib_a-k_cos.o)
 .debug_frame   0x0000000000002038       0x50 /usr/lib//arm-none-eabi/lib/libm.a(lib_a-k_rem_pio2.o)
 .debug_frame   0x0000000000002088       0x4c /usr/lib//arm-none-eabi/lib/libm.a(lib_a-k_sin.o)
 .debug_frame   0x00000000000020d4       0x50 /usr/lib//arm-none-eabi/lib/libm.a(lib_a-k_tan.o)
 .debug_frame   0x0000000000002124       0x4c /usr/lib//arm-none-eabi/lib/libm.a(lib_a-s_expm1.o)
 .debug_frame   0x0000000000002170       0x20 /usr/lib//arm-none-eabi/lib/libm.a(lib_a-s_finite.o)
 .debug_frame   0x0000000000002190       0x20 /usr/lib//arm-none-eabi/lib/libm.a(lib_a-s_nan.o)
 .debug_frame   0x00000000000021b0       0x5c /usr/lib//arm-none-eabi/lib/libm.a(lib_a-s_rint.o)
 .debug_frame   0x000000000000220c       0x6c /usr/lib//arm-none-eabi/lib/libm.a(lib_a-s_scalbn.o)
 .debug_frame   0x0000000000002278      0x140 /usr/lib//arm-none-eabi/lib/libm.a(lib_a-math_err.o)
 .debug_frame   0x00000000000023b8       0x2c /usr/lib//arm-none-eabi/lib/libc.a(lib_a-atof.o)
 .debug_frame   0x00000000000023e4       0x48 /usr/lib//arm-none-eabi/lib/libc.a(lib_a-atoi.o)
 .debug_frame   0x000000000000242c       0x48 /usr/lib//arm-none-eabi/lib/libc.a(lib_a-atol.o)
 .debug_frame   0x0000000000002474       0x44 /usr/lib//arm-none-eabi/lib/libc.a(lib_a-bsearch.o)
 .debug_frame   0x00000000000024b8       0x20 /usr/lib//arm-none-eabi/lib/libc.a(lib_a-errno.o)
 .debug_frame   0x00000000000024d8       0x48 /usr/lib//arm-none-eabi/lib/libc.a(lib_a-malloc.o)
 .debug_frame   0x0000000000002520       0x84 /usr/lib//arm-none-eabi/lib/libc.a(lib_a-mallocr.o)
 .debug_frame   0x00000000000025a4       0x44 /usr/lib//arm-none-eabi/lib/libc.a(lib_a-memchr-stub.o)
 .debug_frame   0x00000000000025e8       0x38 /usr/lib//arm-none-eabi/lib/libc.a(lib_a-memcmp.o)
 .debug_frame   0x0000000000002620       0x38 /usr/lib//arm-none-eabi/lib/libc.a(lib_a-memcpy-stub.o)
 .debug_frame   0x0000000000002658       0x34 /usr/lib//arm-none-eabi/lib/libc.a(lib_a-memmove.o)
 .debug_frame   0x000000000000268c       0x48 /usr/lib//arm-none-eabi/lib/libc.a(lib_a-memset.o)
 .debug_frame   0x00000000000026d4       0x30 /usr/lib//arm-none-eabi/lib/libc.a(lib_a-mlock.o)
 .debug_frame   0x0000000000002704       0x50 /usr/lib//arm-none-eabi/lib/libc.a(lib_a-qsort.o)
 .debug_frame   0x0000000000002754       0x3c /usr/lib//arm-none-eabi/lib/libc.a(lib_a-rand.o)
 .debug_frame   0x0000000000002790       0x3c /usr/lib//arm-none-eabi/lib/libc.a(lib_a-sbrkr.o)
 .debug_frame   0x00000000000027cc       0x6c /usr/lib//arm-none-eabi/lib/libc.a(lib_a-sprintf.o)
 .debug_frame   0x0000000000002838       0x2c /usr/lib//arm-none-eabi/lib/libc.a(lib_a-strcat.o)
 .debug_frame   0x0000000000002864       0x48 /usr/lib//arm-none-eabi/lib/libc.a(lib_a-strchr.o)
 .debug_frame   0x00000000000028ac       0x20 /usr/lib//arm-none-eabi/lib/libc.a(lib_a-strcpy.o)
 .debug_frame   0x00000000000028cc       0x30 /usr/lib//arm-none-eabi/lib/libc.a(lib_a-strcspn.o)
 .debug_frame   0x00000000000028fc       0x30 /usr/lib//arm-none-eabi/lib/libc.a(lib_a-strncat.o)
 .debug_frame   0x000000000000292c       0x40 /usr/lib//arm-none-eabi/lib/libc.a(lib_a-strncpy.o)
 .debug_frame   0x000000000000296c       0x3c /usr/lib//arm-none-eabi/lib/libc.a(lib_a-strrchr.o)
 .debug_frame   0x00000000000029a8       0x2c /usr/lib//arm-none-eabi/lib/libc.a(lib_a-strspn.o)
 .debug_frame   0x00000000000029d4       0xc4 /usr/lib//arm-none-eabi/lib/libc.a(lib_a-strstr.o)
 .debug_frame   0x0000000000002a98       0xe4 /usr/lib//arm-none-eabi/lib/libc.a(lib_a-strtod.o)
 .debug_frame   0x0000000000002b7c       0x2c /usr/lib//arm-none-eabi/lib/libc.a(lib_a-strtok.o)
 .debug_frame   0x0000000000002ba8       0x48 /usr/lib//arm-none-eabi/lib/libc.a(lib_a-strtok_r.o)
 .debug_frame   0x0000000000002bf0       0xa8 /usr/lib//arm-none-eabi/lib/libc.a(lib_a-strtol.o)
 .debug_frame   0x0000000000002c98       0x50 /usr/lib//arm-none-eabi/lib/libc.a(lib_a-svfprintf.o)
 .debug_frame   0x0000000000002ce8       0x54 /usr/lib//arm-none-eabi/lib/libc.a(lib_a-vsprintf.o)
 .debug_frame   0x0000000000002d3c       0xc0 /usr/lib//arm-none-eabi/lib/libc.a(lib_a-dtoa.o)
 .debug_frame   0x0000000000002dfc       0x70 /usr/lib//arm-none-eabi/lib/libc.a(lib_a-freer.o)
 .debug_frame   0x0000000000002e6c       0xac /usr/lib//arm-none-eabi/lib/libc.a(lib_a-gdtoa-gethex.o)
 .debug_frame   0x0000000000002f18       0x94 /usr/lib//arm-none-eabi/lib/libc.a(lib_a-gdtoa-hexnan.o)
 .debug_frame   0x0000000000002fac       0x20 /usr/lib//arm-none-eabi/lib/libc.a(lib_a-lnumeric.o)
 .debug_frame   0x0000000000002fcc       0x60 /usr/lib//arm-none-eabi/lib/libc.a(lib_a-locale.o)
 .debug_frame   0x000000000000302c       0x40 /usr/lib//arm-none-eabi/lib/libc.a(lib_a-localeconv.o)
 .debug_frame   0x000000000000306c       0x48 /usr/lib//arm-none-eabi/lib/libc.a(lib_a-mbtowc_r.o)
 .debug_frame   0x00000000000030b4      0x304 /usr/lib//arm-none-eabi/lib/libc.a(lib_a-mprec.o)
 .debug_frame   0x00000000000033b8       0x5c /usr/lib//arm-none-eabi/lib/libc.a(lib_a-reent.o)
 .debug_frame   0x0000000000003414       0x20 /usr/lib//arm-none-eabi/lib/libc.a(lib_a-sf_nan.o)
 .debug_frame   0x0000000000003434       0x40 /usr/lib//arm-none-eabi/lib/libc.a(lib_a-strcmp.o)
 .debug_frame   0x0000000000003474       0x20 /usr/lib//arm-none-eabi/lib/libc.a(lib_a-strlen-stub.o)
 .debug_frame   0x0000000000003494       0x4c /usr/lib//arm-none-eabi/lib/libc.a(lib_a-strncmp.o)
 .debug_frame   0x00000000000034e0       0x20 /usr/lib//arm-none-eabi/lib/libc.a(lib_a-strnlen.o)
 .debug_frame   0x0000000000003500       0xa0 /usr/lib//arm-none-eabi/lib/libc.a(lib_a-svfiprintf.o)
 .debug_frame   0x00000000000035a0       0x3c /usr/lib//arm-none-eabi/lib/libc.a(lib_a-wctomb_r.o)
 .debug_frame   0x00000000000035dc       0x40 /usr/lib//arm-none-eabi/lib/libc.a(lib_a-assert.o)
 .debug_frame   0x000000000000361c       0x34 /usr/lib//arm-none-eabi/lib/libc.a(lib_a-callocr.o)
 .debug_frame   0x0000000000003650       0x6c /usr/lib//arm-none-eabi/lib/libc.a(lib_a-fiprintf.o)
 .debug_frame   0x00000000000036bc       0x70 /usr/lib//arm-none-eabi/lib/libc.a(lib_a-reallocr.o)
 .debug_frame   0x000000000000372c       0xfc /usr/lib//arm-none-eabi/lib/libc.a(lib_a-vfiprintf.o)
 .debug_frame   0x0000000000003828       0x40 /usr/lib//arm-none-eabi/lib/libc.a(lib_a-wsetup.o)
 .debug_frame   0x0000000000003868       0x28 /usr/lib//arm-none-eabi/lib/libc.a(lib_a-abort.o)
 .debug_frame   0x0000000000003890       0xbc /usr/lib//arm-none-eabi/lib/libc.a(lib_a-fflush.o)
 .debug_frame   0x000000000000394c      0x170 /usr/lib//arm-none-eabi/lib/libc.a(lib_a-findfp.o)
 .debug_frame   0x0000000000003abc       0x90 /usr/lib//arm-none-eabi/lib/libc.a(lib_a-fputwc.o)
 .debug_frame   0x0000000000003b4c       0x70 /usr/lib//arm-none-eabi/lib/libc.a(lib_a-fvwrite.o)
 .debug_frame   0x0000000000003bbc       0x68 /usr/lib//arm-none-eabi/lib/libc.a(lib_a-fwalk.o)
 .debug_frame   0x0000000000003c24       0x98 /usr/lib//arm-none-eabi/lib/libc.a(lib_a-makebuf.o)
 .debug_frame   0x0000000000003cbc      0x15c /usr/lib//arm-none-eabi/lib/libc.a(lib_a-signal.o)
 .debug_frame   0x0000000000003e18       0x50 /usr/lib//arm-none-eabi/lib/libc.a(lib_a-signalr.o)
 .debug_frame   0x0000000000003e68       0xa0 /usr/lib//arm-none-eabi/lib/libc.a(lib_a-stdio.o)
 .debug_frame   0x0000000000003f08       0x4c /usr/lib//arm-none-eabi/lib/libc.a(lib_a-wbuf.o)
 .debug_frame   0x0000000000003f54       0x64 /usr/lib//arm-none-eabi/lib/libc.a(lib_a-wcrtomb.o)
 .debug_frame   0x0000000000003fb8       0x34 /usr/lib//arm-none-eabi/lib/libc.a(lib_a-writer.o)
 .debug_frame   0x0000000000003fec       0x34 /usr/lib//arm-none-eabi/lib/libc.a(lib_a-closer.o)
 .debug_frame   0x0000000000004020       0x98 /usr/lib//arm-none-eabi/lib/libc.a(lib_a-fclose.o)
 .debug_frame   0x00000000000040b8       0x34 /usr/lib//arm-none-eabi/lib/libc.a(lib_a-fstatr.o)
 .debug_frame   0x00000000000040ec       0x34 /usr/lib//arm-none-eabi/lib/libc.a(lib_a-isattyr.o)
 .debug_frame   0x0000000000004120       0x34 /usr/lib//arm-none-eabi/lib/libc.a(lib_a-lseekr.o)
 .debug_frame   0x0000000000004154       0x34 /usr/lib//arm-none-eabi/lib/libc.a(lib_a-readr.o)
 .debug_frame   0x0000000000004188       0x20 /usr/lib//arm-none-eabi/lib/libnosys.a(close.o)
 .debug_frame   0x00000000000041a8       0x20 /usr/lib//arm-none-eabi/lib/libnosys.a(fstat.o)
 .debug_frame   0x00000000000041c8       0x20 /usr/lib//arm-none-eabi/lib/libnosys.a(getpid.o)
 .debug_frame   0x00000000000041e8       0x20 /usr/lib//arm-none-eabi/lib/libnosys.a(isatty.o)
 .debug_frame   0x0000000000004208       0x20 /usr/lib//arm-none-eabi/lib/libnosys.a(kill.o)
 .debug_frame   0x0000000000004228       0x20 /usr/lib//arm-none-eabi/lib/libnosys.a(lseek.o)
 .debug_frame   0x0000000000004248       0x20 /usr/lib//arm-none-eabi/lib/libnosys.a(read.o)
 .debug_frame   0x0000000000004268       0x20 /usr/lib//arm-none-eabi/lib/libnosys.a(sbrk.o)
 .debug_frame   0x0000000000004288       0x20 /usr/lib//arm-none-eabi/lib/libnosys.a(write.o)
 .debug_frame   0x00000000000042a8       0x20 /usr/lib//arm-none-eabi/lib/libnosys.a(_exit.o)
 .debug_frame   0x00000000000042c8       0x30 /usr/lib/gcc/arm-none-eabi/10.3.1/libgcc.a(_arm_muldf3.o)
 .debug_frame   0x00000000000042f8       0x24 /usr/lib/gcc/arm-none-eabi/10.3.1/libgcc.a(_arm_mulsf3.o)
 .debug_frame   0x000000000000431c       0x20 /usr/lib/gcc/arm-none-eabi/10.3.1/libgcc.a(_udivsi3.o)
 .debug_frame   0x000000000000433c       0x20 /usr/lib/gcc/arm-none-eabi/10.3.1/libgcc.a(_divsi3.o)
 .debug_frame   0x000000000000435c       0xac /usr/lib/gcc/arm-none-eabi/10.3.1/libgcc.a(_arm_addsubdf3.o)
 .debug_frame   0x0000000000004408       0x50 /usr/lib/gcc/arm-none-eabi/10.3.1/libgcc.a(_arm_muldivdf3.o)
 .debug_frame   0x0000000000004458       0xc4 /usr/lib/gcc/arm-none-eabi/10.3.1/libgcc.a(_arm_cmpdf2.o)
 .debug_frame   0x000000000000451c       0x20 /usr/lib/gcc/arm-none-eabi/10.3.1/libgcc.a(_arm_unorddf2.o)
 .debug_frame   0x000000000000453c       0x24 /usr/lib/gcc/arm-none-eabi/10.3.1/libgcc.a(_arm_fixdfsi.o)
 .debug_frame   0x0000000000004560       0x24 /usr/lib/gcc/arm-none-eabi/10.3.1/libgcc.a(_arm_fixunsdfsi.o)
 .debug_frame   0x0000000000004584       0x24 /usr/lib/gcc/arm-none-eabi/10.3.1/libgcc.a(_arm_truncdfsf2.o)
 .debug_frame   0x00000000000045a8       0x4c /usr/lib/gcc/arm-none-eabi/10.3.1/libgcc.a(_arm_addsubsf3.o)
 .debug_frame   0x00000000000045f4       0x38 /usr/lib/gcc/arm-none-eabi/10.3.1/libgcc.a(_arm_muldivsf3.o)
 .debug_frame   0x000000000000462c       0xc8 /usr/lib/gcc/arm-none-eabi/10.3.1/libgcc.a(_arm_cmpsf2.o)
 .debug_frame   0x00000000000046f4       0x24 /usr/lib/gcc/arm-none-eabi/10.3.1/libgcc.a(_arm_unordsf2.o)
 .debug_frame   0x0000000000004718       0x24 /usr/lib/gcc/arm-none-eabi/10.3.1/libgcc.a(_arm_fixsfsi.o)
 .debug_frame   0x000000000000473c       0x24 /usr/lib/gcc/arm-none-eabi/10.3.1/libgcc.a(_arm_fixunssfsi.o)
 .debug_frame   0x0000000000004760       0x44 /usr/lib/gcc/arm-none-eabi/10.3.1/libgcc.a(_aeabi_ldivmod.o)
 .debug_frame   0x00000000000047a4       0x2c /usr/lib/gcc/arm-none-eabi/10.3.1/libgcc.a(_aeabi_uldivmod.o)
 .debug_frame   0x00000000000047d0       0x34 /usr/lib/gcc/arm-none-eabi/10.3.1/libgcc.a(_fixsfdi.o)
 .debug_frame   0x0000000000004804       0x3c /usr/lib/gcc/arm-none-eabi/10.3.1/libgcc.a(_fixdfdi.o)
 .debug_frame   0x0000000000004840       0x34 /usr/lib/gcc/arm-none-eabi/10.3.1/libgcc.a(_fixunssfdi.o)
 .debug_frame   0x0000000000004874       0x34 /usr/lib/gcc/arm-none-eabi/10.3.1/libgcc.a(_fixunsdfdi.o)
 .debug_frame   0x00000000000048a8       0x40 /usr/lib/gcc/arm-none-eabi/10.3.1/libgcc.a(_udivmoddi4.o)

.debug_ranges   0x0000000000000000     0x1990
 .debug_ranges  0x0000000000000000       0x38 /usr/lib//arm-none-eabi/lib/libm.a(lib_a-s_atan.o)
 .debug_ranges  0x0000000000000038       0x50 /usr/lib//arm-none-eabi/lib/libm.a(lib_a-s_cbrt.o)
 .debug_ranges  0x0000000000000088       0x30 /usr/lib//arm-none-eabi/lib/libm.a(lib_a-s_ceil.o)
 .debug_ranges  0x00000000000000b8       0x30 /usr/lib//arm-none-eabi/lib/libm.a(lib_a-s_erf.o)
 .debug_ranges  0x00000000000000e8       0x30 /usr/lib//arm-none-eabi/lib/libm.a(lib_a-s_floor.o)
 .debug_ranges  0x0000000000000118       0xc8 /usr/lib//arm-none-eabi/lib/libm.a(lib_a-s_modf.o)
 .debug_ranges  0x00000000000001e0       0x18 /usr/lib//arm-none-eabi/lib/libm.a(lib_a-s_round.o)
 .debug_ranges  0x00000000000001f8       0x18 /usr/lib//arm-none-eabi/lib/libm.a(lib_a-s_tanh.o)
 .debug_ranges  0x0000000000000210       0x58 /usr/lib//arm-none-eabi/lib/libm.a(lib_a-s_trunc.o)
 .debug_ranges  0x0000000000000268       0x48 /usr/lib//arm-none-eabi/lib/libm.a(lib_a-e_acos.o)
 .debug_ranges  0x00000000000002b0       0x38 /usr/lib//arm-none-eabi/lib/libm.a(lib_a-e_asin.o)
 .debug_ranges  0x00000000000002e8       0x30 /usr/lib//arm-none-eabi/lib/libm.a(lib_a-e_atan2.o)
 .debug_ranges  0x0000000000000318       0x50 /usr/lib//arm-none-eabi/lib/libm.a(lib_a-e_exp.o)
 .debug_ranges  0x0000000000000368       0x38 /usr/lib//arm-none-eabi/lib/libm.a(lib_a-e_fmod.o)
 .debug_ranges  0x00000000000003a0      0x150 /usr/lib//arm-none-eabi/lib/libm.a(lib_a-e_hypot.o)
 .debug_ranges  0x00000000000004f0       0x48 /usr/lib//arm-none-eabi/lib/libm.a(lib_a-e_log.o)
 .debug_ranges  0x0000000000000538       0x48 /usr/lib//arm-none-eabi/lib/libm.a(lib_a-e_log10.o)
 .debug_ranges  0x0000000000000580      0x180 /usr/lib//arm-none-eabi/lib/libm.a(lib_a-e_pow.o)
 .debug_ranges  0x0000000000000700       0x38 /usr/lib//arm-none-eabi/lib/libm.a(lib_a-e_rem_pio2.o)
 .debug_ranges  0x0000000000000738       0x18 /usr/lib//arm-none-eabi/lib/libm.a(lib_a-e_sqrt.o)
 .debug_ranges  0x0000000000000750       0x18 /usr/lib//arm-none-eabi/lib/libm.a(lib_a-k_cos.o)
 .debug_ranges  0x0000000000000768       0x58 /usr/lib//arm-none-eabi/lib/libm.a(lib_a-k_tan.o)
 .debug_ranges  0x00000000000007c0       0xa0 /usr/lib//arm-none-eabi/lib/libm.a(lib_a-s_expm1.o)
 .debug_ranges  0x0000000000000860       0x68 /usr/lib//arm-none-eabi/lib/libm.a(lib_a-s_rint.o)
 .debug_ranges  0x00000000000008c8       0x48 /usr/lib//arm-none-eabi/lib/libm.a(lib_a-s_scalbn.o)
 .debug_ranges  0x0000000000000910       0x30 /usr/lib//arm-none-eabi/lib/libm.a(lib_a-math_err.o)
 .debug_ranges  0x0000000000000940       0x40 /usr/lib//arm-none-eabi/lib/libc.a(lib_a-mallocr.o)
 .debug_ranges  0x0000000000000980      0x278 /usr/lib//arm-none-eabi/lib/libc.a(lib_a-qsort.o)
 .debug_ranges  0x0000000000000bf8       0x10 /usr/lib//arm-none-eabi/lib/libc.a(lib_a-strcpy.o)
 .debug_ranges  0x0000000000000c08       0x28 /usr/lib//arm-none-eabi/lib/libc.a(lib_a-strncat.o)
 .debug_ranges  0x0000000000000c30       0xa8 /usr/lib//arm-none-eabi/lib/libc.a(lib_a-strstr.o)
 .debug_ranges  0x0000000000000cd8       0xf8 /usr/lib//arm-none-eabi/lib/libc.a(lib_a-strtod.o)
 .debug_ranges  0x0000000000000dd0       0x78 /usr/lib//arm-none-eabi/lib/libc.a(lib_a-strtol.o)
 .debug_ranges  0x0000000000000e48      0x190 /usr/lib//arm-none-eabi/lib/libc.a(lib_a-svfprintf.o)
 .debug_ranges  0x0000000000000fd8       0x48 /usr/lib//arm-none-eabi/lib/libc.a(lib_a-vsprintf.o)
 .debug_ranges  0x0000000000001020       0x40 /usr/lib//arm-none-eabi/lib/libc.a(lib_a-dtoa.o)
 .debug_ranges  0x0000000000001060       0x98 /usr/lib//arm-none-eabi/lib/libc.a(lib_a-gdtoa-gethex.o)
 .debug_ranges  0x00000000000010f8       0x20 /usr/lib//arm-none-eabi/lib/libc.a(lib_a-locale.o)
 .debug_ranges  0x0000000000001118      0x178 /usr/lib//arm-none-eabi/lib/libc.a(lib_a-mprec.o)
 .debug_ranges  0x0000000000001290       0x10 /usr/lib//arm-none-eabi/lib/libc.a(lib_a-strlen-stub.o)
 .debug_ranges  0x00000000000012a0       0x50 /usr/lib//arm-none-eabi/lib/libc.a(lib_a-svfiprintf.o)
 .debug_ranges  0x00000000000012f0       0x38 /usr/lib//arm-none-eabi/lib/libc.a(lib_a-callocr.o)
 .debug_ranges  0x0000000000001328       0xf8 /usr/lib//arm-none-eabi/lib/libc.a(lib_a-reallocr.o)
 .debug_ranges  0x0000000000001420      0x190 /usr/lib//arm-none-eabi/lib/libc.a(lib_a-vfiprintf.o)
 .debug_ranges  0x00000000000015b0       0x20 /usr/lib//arm-none-eabi/lib/libc.a(lib_a-wsetup.o)
 .debug_ranges  0x00000000000015d0       0x80 /usr/lib//arm-none-eabi/lib/libc.a(lib_a-fflush.o)
 .debug_ranges  0x0000000000001650      0x130 /usr/lib//arm-none-eabi/lib/libc.a(lib_a-findfp.o)
 .debug_ranges  0x0000000000001780       0x50 /usr/lib//arm-none-eabi/lib/libc.a(lib_a-fputwc.o)
 .debug_ranges  0x00000000000017d0       0x30 /usr/lib//arm-none-eabi/lib/libc.a(lib_a-fvwrite.o)
 .debug_ranges  0x0000000000001800       0x70 /usr/lib//arm-none-eabi/lib/libc.a(lib_a-makebuf.o)
 .debug_ranges  0x0000000000001870       0x90 /usr/lib//arm-none-eabi/lib/libc.a(lib_a-signal.o)
 .debug_ranges  0x0000000000001900       0x28 /usr/lib//arm-none-eabi/lib/libc.a(lib_a-wbuf.o)
 .debug_ranges  0x0000000000001928       0x68 /usr/lib//arm-none-eabi/lib/libc.a(lib_a-fclose.o)

.stab           0x0000000000000000       0xcc
 .stab          0x0000000000000000       0x24 /usr/lib//arm-none-eabi/lib/libnosys.a(close.o)
 .stab          0x0000000000000024       0x18 /usr/lib//arm-none-eabi/lib/libnosys.a(fstat.o)
                                         0x24 (size before relaxing)
 .stab          0x000000000000003c       0x18 /usr/lib//arm-none-eabi/lib/libnosys.a(getpid.o)
                                         0x24 (size before relaxing)
 .stab          0x0000000000000054       0x18 /usr/lib//arm-none-eabi/lib/libnosys.a(isatty.o)
                                         0x24 (size before relaxing)
 .stab          0x000000000000006c       0x18 /usr/lib//arm-none-eabi/lib/libnosys.a(kill.o)
                                         0x24 (size before relaxing)
 .stab          0x0000000000000084       0x18 /usr/lib//arm-none-eabi/lib/libnosys.a(lseek.o)
                                         0x24 (size before relaxing)
 .stab          0x000000000000009c       0x18 /usr/lib//arm-none-eabi/lib/libnosys.a(read.o)
                                         0x24 (size before relaxing)
 .stab          0x00000000000000b4       0x18 /usr/lib//arm-none-eabi/lib/libnosys.a(write.o)
                                         0x24 (size before relaxing)

.stabstr        0x0000000000000000      0x1b9
 .stabstr       0x0000000000000000      0x1b9 /usr/lib//arm-none-eabi/lib/libnosys.a(close.o)
