	.cpu arm7tdmi-s
	.eabi_attribute 20, 1	@ Tag_ABI_FP_denormal
	.eabi_attribute 21, 1	@ Tag_ABI_FP_exceptions
	.eabi_attribute 23, 3	@ Tag_ABI_FP_number_model
	.eabi_attribute 24, 1	@ Tag_ABI_align8_needed
	.eabi_attribute 25, 1	@ Tag_ABI_align8_preserved
	.eabi_attribute 26, 1	@ Tag_ABI_enum_size
	.eabi_attribute 30, 1	@ Tag_ABI_optimization_goals
	.eabi_attribute 34, 0	@ Tag_CPU_unaligned_access
	.eabi_attribute 18, 4	@ Tag_ABI_PCS_wchar_t
	.file	"test.c"
	.text
.Ltext0:
	.cfi_sections	.debug_frame
	.align	2
	.global	test
	.syntax unified
	.arm
	.fpu softvfp
	.type	test, %function
test:
.LFB1:
	.file 1 "test.c"
	@ test.c:15
	.loc 1 15 0
	.cfi_startproc
	@ Function supports interworking.
	@ args = 0, pretend = 0, frame = 8
	@ frame_needed = 0, uses_anonymous_args = 0
@ BLOCK 2 freq:95 seq:0
@ PRED: ENTRY [100.0%]  (FALLTHRU)
	push	{r4, r5, r6, r7, r8, r9, r10, fp, lr}
.LCFI0:
	.cfi_def_cfa_offset 36
	.cfi_offset 4, -36
	.cfi_offset 5, -32
	.cfi_offset 6, -28
	.cfi_offset 7, -24
	.cfi_offset 8, -20
	.cfi_offset 9, -16
	.cfi_offset 10, -12
	.cfi_offset 11, -8
	.cfi_offset 14, -4
	sub	sp, sp, #12
.LCFI1:
	.cfi_def_cfa_offset 48
	@ test.c:18
	.loc 1 18 0
	mov	r0, #1040
	bl	malloc2388
.LVL0:
	mov	r2, r0
.LVL1:
.LBB4:
.LBB5:
	.file 2 "../../include/bios2388.h"
	@ ../../include/bios2388.h:40
	.loc 2 40 0
	.syntax divided
@ 40 "../../include/bios2388.h" 1
	mov r3, pc
@ 0 "" 2
	.arm
	.syntax unified
	str	r3, [sp, #4]
	@ ../../include/bios2388.h:41
	.loc 2 41 0
	ldr	r1, [sp, #4]
.LBE5:
.LBE4:
	@ test.c:19
	.loc 1 19 0
	ldr	r3, .L8
	str	r1, [r3]
	@ test.c:20
	.loc 1 20 0
	ldr	r0, .L8+4
.LVL2:
	bl	xprintf
.LVL3:
	@ test.c:21
	.loc 1 21 0
	mov	r2, #0
	ldr	r3, .L8+8
	str	r2, [r3]
	@ test.c:23
	.loc 1 23 0
	mov	r8, r3
	@ test.c:24
	.loc 1 24 0
	mov	r10, #2048
	@ test.c:25
	.loc 1 25 0
	ldr	r9, .L8+12
	@ test.c:27
	.loc 1 27 0
	ldr	r4, .L8+16
	@ test.c:29
	.loc 1 29 0
	ldr	r7, .L8+20
@ SUCC: 3 [100.0%]  (FALLTHRU,CAN_FALLTHRU)
	@ test.c:27
	.loc 1 27 0
	ldr	r6, .L8+24
@ BLOCK 3 freq:1059 seq:1
@ PRED: 2 [100.0%]  (FALLTHRU,CAN_FALLTHRU) 5 [9.0%]  (DFS_BACK,CAN_FALLTHRU,LOOP_EXIT)
.L5:
	@ test.c:23
	.loc 1 23 0
	ldr	r3, [r8]
	add	r3, r3, #1
	str	r3, [r8]
	@ test.c:24
	.loc 1 24 0
	mov	r0, r10
	bl	malloc2388
.LVL4:
	mov	r5, r0
.LVL5:
	@ test.c:25
	.loc 1 25 0
	ldr	fp, [r8]
	bl	current_sp
.LVL6:
	mov	r3, r0
	mov	r2, r5
	mov	r1, fp
	mov	r0, r9
	bl	xprintf
.LVL7:
	@ test.c:26
	.loc 1 26 0
	cmp	r5, #0
@ SUCC: 4 [85.0%]  (FALLTHRU,CAN_FALLTHRU) 8 [15.0%]  (CAN_FALLTHRU,LOOP_EXIT)
	beq	.L2
@ BLOCK 4 freq:900 seq:2
@ PRED: 3 [85.0%]  (FALLTHRU,CAN_FALLTHRU)
	@ test.c:27
	.loc 1 27 0
	mov	r3, #0
	str	r3, [r4]
@ SUCC: 6 [100.0%]  (CAN_FALLTHRU)
	b	.L4
@ BLOCK 5 freq:9100 seq:3
@ PRED: 6 [48.8%]  (CAN_FALLTHRU) 7 [100.0%]  (CAN_FALLTHRU)
.L3:
	@ test.c:27
	.loc 1 27 0 is_stmt 0
	ldr	r3, [r4]
	add	r3, r3, #1
	str	r3, [r4]
	cmp	r3, r6
@ SUCC: 6 [91.0%]  (FALLTHRU,DFS_BACK,CAN_FALLTHRU) 3 [9.0%]  (DFS_BACK,CAN_FALLTHRU,LOOP_EXIT)
	bgt	.L5
@ BLOCK 6 freq:9100 seq:4
@ PRED: 5 [91.0%]  (FALLTHRU,DFS_BACK,CAN_FALLTHRU) 4 [100.0%]  (CAN_FALLTHRU)
.L4:
	@ test.c:28
	.loc 1 28 0 is_stmt 1
	rsb	r2, r3, #0
	strb	r2, [r5, r3]
	@ test.c:29
	.loc 1 29 0
	ldr	r2, [r4]
	rsb	r3, r2, #0
	ldrb	r1, [r5, r2]	@ zero_extendqisi2
	and	r3, r3, #255
	cmp	r1, r3
@ SUCC: 7 [51.2%]  (FALLTHRU,CAN_FALLTHRU) 5 [48.8%]  (CAN_FALLTHRU)
	beq	.L3
@ BLOCK 7 freq:4662 seq:5
@ PRED: 6 [51.2%]  (FALLTHRU,CAN_FALLTHRU)
	@ test.c:29
	.loc 1 29 0 is_stmt 0
	mov	r1, r5
	mov	r0, r7
	bl	xprintf
.LVL8:
@ SUCC: 5 [100.0%]  (CAN_FALLTHRU)
	b	.L3
@ BLOCK 8 freq:159 seq:6
@ PRED: 3 [15.0%]  (CAN_FALLTHRU,LOOP_EXIT)
.L2:
	@ test.c:34
	.loc 1 34 0 is_stmt 1
	ldr	r0, .L8+28
	bl	xprintf
.LVL9:
	@ test.c:35
	.loc 1 35 0
	ldr	r0, .L8+32
	bl	sys_exit
.LVL10:
	@ test.c:36
	.loc 1 36 0
	add	sp, sp, #12
.LCFI2:
	.cfi_def_cfa_offset 36
	@ sp needed
	pop	{r4, r5, r6, r7, r8, r9, r10, fp, lr}
.LCFI3:
	.cfi_restore 14
	.cfi_restore 11
	.cfi_restore 10
	.cfi_restore 9
	.cfi_restore 8
	.cfi_restore 7
	.cfi_restore 6
	.cfi_restore 5
	.cfi_restore 4
	.cfi_def_cfa_offset 0
.LVL11:
@ SUCC: EXIT [100.0%] 
	bx	lr
.L9:
	.align	2
.L8:
	.word	p
	.word	.LC0
	.word	i
	.word	.LC1
	.word	j
	.word	.LC2
	.word	2047
	.word	.LC3
	.word	2421
	.cfi_endproc
.LFE1:
	.size	test, .-test
	.align	2
	.global	main
	.syntax unified
	.arm
	.fpu softvfp
	.type	main, %function
main:
.LFB2:
	@ test.c:40
	.loc 1 40 0
	.cfi_startproc
	@ Function supports interworking.
	@ args = 0, pretend = 0, frame = 0
	@ frame_needed = 0, uses_anonymous_args = 0
@ BLOCK 2 freq:1111 seq:0
@ PRED: ENTRY [100.0%]  (FALLTHRU)
	push	{r4, r5, r6, r7, r8, lr}
.LCFI4:
	.cfi_def_cfa_offset 24
	.cfi_offset 4, -24
	.cfi_offset 5, -20
	.cfi_offset 6, -16
	.cfi_offset 7, -12
	.cfi_offset 8, -8
	.cfi_offset 14, -4
.LVL12:
	@ test.c:49
	.loc 1 49 0
	ldr	r3, .L20
	ldr	r2, .L20+4
	mov	r1, #7
	mov	r0, #4
	bl	__malloc2388_init
.LVL13:
	mov	r3, r0
	mov	r2, #7
	mov	r1, #4
	ldr	r0, .L20+8
	bl	xprintf
.LVL14:
	@ test.c:52
	.loc 1 52 0
	mov	r0, #5
	bl	malloc2388
.LVL15:
	mov	r1, r0
	ldr	r0, .L20+12
	bl	xprintf
.LVL16:
	mov	r4, #3
	@ test.c:55
	.loc 1 55 0
	mov	r6, #8
@ SUCC: 3 [100.0%]  (FALLTHRU,CAN_FALLTHRU)
	ldr	r5, .L20+16
.LVL17:
@ BLOCK 3 freq:3333 seq:1
@ PRED: 3 [75.0%]  (DFS_BACK,CAN_FALLTHRU) 2 [100.0%]  (FALLTHRU,CAN_FALLTHRU)
.L11:
	@ test.c:55
	.loc 1 55 0 is_stmt 0
	mov	r0, r6
	bl	malloc2388
.LVL18:
	mov	r1, r0
	mov	r0, r5
	bl	xprintf
.LVL19:
	@ test.c:54
	.loc 1 54 0 is_stmt 1
	subs	r4, r4, #1
.LVL20:
@ SUCC: 3 [75.0%]  (DFS_BACK,CAN_FALLTHRU) 4 [25.0%]  (FALLTHRU,CAN_FALLTHRU,LOOP_EXIT)
	bne	.L11
@ BLOCK 4 freq:833 seq:2
@ PRED: 3 [25.0%]  (FALLTHRU,CAN_FALLTHRU,LOOP_EXIT)
	mov	r4, #3
.LVL21:
	@ test.c:59
	.loc 1 59 0
	mov	r6, #1
@ SUCC: 5 [100.0%]  (FALLTHRU,CAN_FALLTHRU)
	ldr	r5, .L20+20
@ BLOCK 5 freq:3333 seq:3
@ PRED: 4 [100.0%]  (FALLTHRU,CAN_FALLTHRU) 5 [75.0%]  (DFS_BACK,CAN_FALLTHRU)
.L12:
.LVL22:
	@ test.c:59
	.loc 1 59 0 is_stmt 0
	mov	r0, r6
	bl	malloc2388
.LVL23:
	mov	r1, r0
	mov	r0, r5
	bl	xprintf
.LVL24:
	@ test.c:58
	.loc 1 58 0 is_stmt 1
	subs	r4, r4, #1
.LVL25:
@ SUCC: 5 [75.0%]  (DFS_BACK,CAN_FALLTHRU) 6 [25.0%]  (FALLTHRU,CAN_FALLTHRU,LOOP_EXIT)
	bne	.L12
@ BLOCK 6 freq:1111 seq:4
@ PRED: 5 [25.0%]  (FALLTHRU,CAN_FALLTHRU,LOOP_EXIT)
	@ test.c:62
	.loc 1 62 0
	mov	r0, #3
	bl	malloc2388
.LVL26:
	mov	r5, r0
.LVL27:
	mov	r1, r0
	ldr	r0, .L20+24
.LVL28:
	bl	xprintf
.LVL29:
	mov	r4, #3
	@ test.c:65
	.loc 1 65 0
	mov	r7, #8
@ SUCC: 7 [100.0%]  (FALLTHRU,CAN_FALLTHRU)
	ldr	r6, .L20+16
.LVL30:
@ BLOCK 7 freq:3333 seq:5
@ PRED: 7 [75.0%]  (DFS_BACK,CAN_FALLTHRU) 6 [100.0%]  (FALLTHRU,CAN_FALLTHRU)
.L13:
	@ test.c:65
	.loc 1 65 0 is_stmt 0
	mov	r0, r7
	bl	malloc2388
.LVL31:
	mov	r1, r0
	mov	r0, r6
	bl	xprintf
.LVL32:
	@ test.c:64
	.loc 1 64 0 is_stmt 1
	subs	r4, r4, #1
.LVL33:
@ SUCC: 7 [75.0%]  (DFS_BACK,CAN_FALLTHRU) 8 [25.0%]  (FALLTHRU,CAN_FALLTHRU,LOOP_EXIT)
	bne	.L13
@ BLOCK 8 freq:1111 seq:6
@ PRED: 7 [25.0%]  (FALLTHRU,CAN_FALLTHRU,LOOP_EXIT)
	@ test.c:68
	.loc 1 68 0
	mov	r1, r5
	ldr	r0, .L20+28
	bl	xprintf
.LVL34:
	@ test.c:69
	.loc 1 69 0
	mov	r0, r5
	bl	free2388
.LVL35:
	@ test.c:71
	.loc 1 71 0
	mov	r4, #8
@ SUCC: 9 [100.0%]  (FALLTHRU,CAN_FALLTHRU)
	@ test.c:72
	.loc 1 72 0
	ldr	r5, .L20+32
.LVL36:
@ BLOCK 9 freq:8890 seq:7
@ PRED: 9 [88.9%]  (DFS_BACK,CAN_FALLTHRU) 8 [100.0%]  (FALLTHRU,CAN_FALLTHRU)
.L14:
	@ test.c:72
	.loc 1 72 0 is_stmt 0
	mov	r0, r4
	bl	malloc2388
.LVL37:
	mov	r2, r0
	mov	r1, r4
	mov	r0, r5
	bl	xprintf
.LVL38:
	@ test.c:71
	.loc 1 71 0 is_stmt 1
	subs	r4, r4, #1
.LVL39:
@ SUCC: 9 [88.9%]  (DFS_BACK,CAN_FALLTHRU) 10 [11.1%]  (FALLTHRU,CAN_FALLTHRU,LOOP_EXIT)
	bne	.L14
@ BLOCK 10 freq:1111 seq:8
@ PRED: 9 [11.1%]  (FALLTHRU,CAN_FALLTHRU,LOOP_EXIT)
	@ test.c:76
	.loc 1 76 0
	bl	test
.LVL40:
	@ test.c:79
	.loc 1 79 0
	ldr	r0, .L20+36
	bl	xprintf
.LVL41:
	@ test.c:82
	.loc 1 82 0
	mov	r0, #1
	pop	{r4, r5, r6, r7, r8, lr}
.LCFI5:
	.cfi_restore 14
	.cfi_restore 8
	.cfi_restore 7
	.cfi_restore 6
	.cfi_restore 5
	.cfi_restore 4
	.cfi_def_cfa_offset 0
.LVL42:
@ SUCC: EXIT [100.0%] 
	bx	lr
.L21:
	.align	2
.L20:
	.word	_heap_end_
	.word	_heap_start_
	.word	.LC4
	.word	.LC5
	.word	.LC6
	.word	.LC7
	.word	.LC8
	.word	.LC9
	.word	.LC10
	.word	.LC11
	.cfi_endproc
.LFE2:
	.size	main, .-main
	.comm	p,4,4
	.comm	j,4,4
	.comm	i,4,4
	.section	.rodata.str1.4,"aMS",%progbits,1
	.align	2
.LC0:
	.ascii	"\012pc=0x%08x, addr=%08x\012\000"
	.space	1
.LC1:
	.ascii	"(%2d) heap = %08x, sp=%08x\012\000"
.LC2:
	.ascii	"! %08x:%X\012\000"
	.space	1
.LC3:
	.ascii	"Exit internally with return code 0x975.\012\000"
	.space	3
.LC4:
	.ascii	"\012malloc2388_init(clustersize=%d, memcfg=%d): %ld"
	.ascii	" clusters available\012\000"
	.space	3
.LC5:
	.ascii	"* alloc(5) = %08x\012\000"
	.space	1
.LC6:
	.ascii	"* alloc(8) = %08x\012\000"
	.space	1
.LC7:
	.ascii	"* alloc(1) = %08x\012\000"
	.space	1
.LC8:
	.ascii	"* alloc(3) = %08x\012\000"
	.space	1
.LC9:
	.ascii	"* free(3 @ %08x)\012\000"
	.space	2
.LC10:
	.ascii	"* alloc(%d) = %08x\012\000"
.LC11:
	.ascii	"complete.\012\000"
	.text
.Letext0:
	.file 3 "c:\\users\\user\\desktop\\arm-dev\\arm-tools\\arm-none-eabi\\include\\machine\\_default_types.h"
	.file 4 "c:\\users\\user\\desktop\\arm-dev\\arm-tools\\arm-none-eabi\\include\\sys\\_stdint.h"
	.file 5 "../../include/xprintf.h"
	.file 6 "c:\\users\\user\\desktop\\arm-dev\\arm-tools\\arm-none-eabi\\include\\sys\\lock.h"
	.file 7 "c:\\users\\user\\desktop\\arm-dev\\arm-tools\\arm-none-eabi\\include\\sys\\_types.h"
	.file 8 "c:\\users\\user\\desktop\\arm-dev\\arm-tools\\lib\\gcc\\arm-none-eabi\\6.3.1\\include\\stddef.h"
	.file 9 "c:\\users\\user\\desktop\\arm-dev\\arm-tools\\arm-none-eabi\\include\\sys\\reent.h"
	.file 10 "../../include/tinymalloc.h"
	.file 11 "../../include/malloc2388.h"